
SAMD20_MotorControl.elf:     file format elf32-littlearm

Sections:
Idx Name          Size      VMA       LMA       File off  Algn
  0 .text         0000179c  00000000  00000000  00010000  2**2
                  CONTENTS, ALLOC, LOAD, READONLY, CODE
  1 .relocate     00000030  20000000  0000179c  00020000  2**2
                  CONTENTS, ALLOC, LOAD, DATA
  2 .bss          00000370  20000030  000017cc  00020030  2**2
                  ALLOC
  3 .stack        00002000  200003a0  00001b3c  00020030  2**0
                  ALLOC
  4 .ARM.attributes 00000028  00000000  00000000  00020030  2**0
                  CONTENTS, READONLY
  5 .comment      00000059  00000000  00000000  00020058  2**0
                  CONTENTS, READONLY
  6 .debug_frame  000000a8  00000000  00000000  000200b4  2**2
                  CONTENTS, READONLY, DEBUGGING

Disassembly of section .text:

00000000 <exception_table>:
       0:	a0 23 00 20 15 14 00 00 11 14 00 00 11 14 00 00     .#. ............
	...
      2c:	11 14 00 00 00 00 00 00 00 00 00 00 11 14 00 00     ................
      3c:	c5 0c 00 00 11 14 00 00 11 14 00 00 11 02 00 00     ................
      4c:	11 14 00 00 11 14 00 00 11 14 00 00 09 03 00 00     ................
      5c:	55 0c 00 00 65 0c 00 00 75 0c 00 00 85 0c 00 00     U...e...u.......
      6c:	95 0c 00 00 a5 0c 00 00 89 02 00 00 99 02 00 00     ................
      7c:	a9 02 00 00 b9 02 00 00 c9 02 00 00 d9 02 00 00     ................
      8c:	e9 02 00 00 f9 02 00 00 11 14 00 00 11 14 00 00     ................
      9c:	11 14 00 00 11 14 00 00                             ........

000000a4 <__do_global_dtors_aux>:
      a4:	b510      	push	{r4, lr}
      a6:	4c06      	ldr	r4, [pc, #24]	; (c0 <__do_global_dtors_aux+0x1c>)
      a8:	7823      	ldrb	r3, [r4, #0]
      aa:	2b00      	cmp	r3, #0
      ac:	d107      	bne.n	be <__do_global_dtors_aux+0x1a>
      ae:	4b05      	ldr	r3, [pc, #20]	; (c4 <__do_global_dtors_aux+0x20>)
      b0:	2b00      	cmp	r3, #0
      b2:	d002      	beq.n	ba <__do_global_dtors_aux+0x16>
      b4:	4804      	ldr	r0, [pc, #16]	; (c8 <__do_global_dtors_aux+0x24>)
      b6:	e000      	b.n	ba <__do_global_dtors_aux+0x16>
      b8:	bf00      	nop
      ba:	2301      	movs	r3, #1
      bc:	7023      	strb	r3, [r4, #0]
      be:	bd10      	pop	{r4, pc}
      c0:	20000030 	.word	0x20000030
      c4:	00000000 	.word	0x00000000
      c8:	0000179c 	.word	0x0000179c

000000cc <frame_dummy>:
      cc:	4b08      	ldr	r3, [pc, #32]	; (f0 <frame_dummy+0x24>)
      ce:	b510      	push	{r4, lr}
      d0:	2b00      	cmp	r3, #0
      d2:	d003      	beq.n	dc <frame_dummy+0x10>
      d4:	4907      	ldr	r1, [pc, #28]	; (f4 <frame_dummy+0x28>)
      d6:	4808      	ldr	r0, [pc, #32]	; (f8 <frame_dummy+0x2c>)
      d8:	e000      	b.n	dc <frame_dummy+0x10>
      da:	bf00      	nop
      dc:	4807      	ldr	r0, [pc, #28]	; (fc <frame_dummy+0x30>)
      de:	6803      	ldr	r3, [r0, #0]
      e0:	2b00      	cmp	r3, #0
      e2:	d100      	bne.n	e6 <frame_dummy+0x1a>
      e4:	bd10      	pop	{r4, pc}
      e6:	4b06      	ldr	r3, [pc, #24]	; (100 <frame_dummy+0x34>)
      e8:	2b00      	cmp	r3, #0
      ea:	d0fb      	beq.n	e4 <frame_dummy+0x18>
      ec:	4798      	blx	r3
      ee:	e7f9      	b.n	e4 <frame_dummy+0x18>
      f0:	00000000 	.word	0x00000000
      f4:	20000034 	.word	0x20000034
      f8:	0000179c 	.word	0x0000179c
      fc:	0000179c 	.word	0x0000179c
     100:	00000000 	.word	0x00000000

00000104 <wdt_set_config>:
     104:	b537      	push	{r0, r1, r2, r4, r5, lr}
     106:	0005      	movs	r5, r0
     108:	2010      	movs	r0, #16
     10a:	4a2f      	ldr	r2, [pc, #188]	; (1c8 <wdt_set_config+0xc4>)
     10c:	4c2f      	ldr	r4, [pc, #188]	; (1cc <wdt_set_config+0xc8>)
     10e:	6993      	ldr	r3, [r2, #24]
     110:	4303      	orrs	r3, r0
     112:	6193      	str	r3, [r2, #24]
     114:	7823      	ldrb	r3, [r4, #0]
     116:	b25b      	sxtb	r3, r3
     118:	2b00      	cmp	r3, #0
     11a:	db45      	blt.n	1a8 <wdt_set_config+0xa4>
     11c:	78eb      	ldrb	r3, [r5, #3]
     11e:	3007      	adds	r0, #7
     120:	2b00      	cmp	r3, #0
     122:	d041      	beq.n	1a8 <wdt_set_config+0xa4>
     124:	792a      	ldrb	r2, [r5, #4]
     126:	429a      	cmp	r2, r3
     128:	d83e      	bhi.n	1a8 <wdt_set_config+0xa4>
     12a:	796a      	ldrb	r2, [r5, #5]
     12c:	429a      	cmp	r2, r3
     12e:	d83b      	bhi.n	1a8 <wdt_set_config+0xa4>
     130:	2202      	movs	r2, #2
     132:	7823      	ldrb	r3, [r4, #0]
     134:	4393      	bics	r3, r2
     136:	7023      	strb	r3, [r4, #0]
     138:	79e3      	ldrb	r3, [r4, #7]
     13a:	b25b      	sxtb	r3, r3
     13c:	2b00      	cmp	r3, #0
     13e:	dbfb      	blt.n	138 <wdt_set_config+0x34>
     140:	786b      	ldrb	r3, [r5, #1]
     142:	2b00      	cmp	r3, #0
     144:	d02f      	beq.n	1a6 <wdt_set_config+0xa2>
     146:	78ab      	ldrb	r3, [r5, #2]
     148:	a901      	add	r1, sp, #4
     14a:	700b      	strb	r3, [r1, #0]
     14c:	2001      	movs	r0, #1
     14e:	4b20      	ldr	r3, [pc, #128]	; (1d0 <wdt_set_config+0xcc>)
     150:	4798      	blx	r3
     152:	4b20      	ldr	r3, [pc, #128]	; (1d4 <wdt_set_config+0xd0>)
     154:	2001      	movs	r0, #1
     156:	4798      	blx	r3
     158:	782b      	ldrb	r3, [r5, #0]
     15a:	2b00      	cmp	r3, #0
     15c:	d002      	beq.n	164 <wdt_set_config+0x60>
     15e:	2001      	movs	r0, #1
     160:	4b1d      	ldr	r3, [pc, #116]	; (1d8 <wdt_set_config+0xd4>)
     162:	4798      	blx	r3
     164:	78eb      	ldrb	r3, [r5, #3]
     166:	7929      	ldrb	r1, [r5, #4]
     168:	3b01      	subs	r3, #1
     16a:	2204      	movs	r2, #4
     16c:	2900      	cmp	r1, #0
     16e:	d01c      	beq.n	1aa <wdt_set_config+0xa6>
     170:	7821      	ldrb	r1, [r4, #0]
     172:	430a      	orrs	r2, r1
     174:	7022      	strb	r2, [r4, #0]
     176:	792a      	ldrb	r2, [r5, #4]
     178:	3a01      	subs	r2, #1
     17a:	0112      	lsls	r2, r2, #4
     17c:	4313      	orrs	r3, r2
     17e:	79e2      	ldrb	r2, [r4, #7]
     180:	b252      	sxtb	r2, r2
     182:	2a00      	cmp	r2, #0
     184:	dbfb      	blt.n	17e <wdt_set_config+0x7a>
     186:	b2db      	uxtb	r3, r3
     188:	7063      	strb	r3, [r4, #1]
     18a:	796b      	ldrb	r3, [r5, #5]
     18c:	2b00      	cmp	r3, #0
     18e:	d110      	bne.n	1b2 <wdt_set_config+0xae>
     190:	782b      	ldrb	r3, [r5, #0]
     192:	2b00      	cmp	r3, #0
     194:	d015      	beq.n	1c2 <wdt_set_config+0xbe>
     196:	2280      	movs	r2, #128	; 0x80
     198:	7823      	ldrb	r3, [r4, #0]
     19a:	4313      	orrs	r3, r2
     19c:	7023      	strb	r3, [r4, #0]
     19e:	79e3      	ldrb	r3, [r4, #7]
     1a0:	b25b      	sxtb	r3, r3
     1a2:	2b00      	cmp	r3, #0
     1a4:	dbfb      	blt.n	19e <wdt_set_config+0x9a>
     1a6:	2000      	movs	r0, #0
     1a8:	bd3e      	pop	{r1, r2, r3, r4, r5, pc}
     1aa:	7821      	ldrb	r1, [r4, #0]
     1ac:	4391      	bics	r1, r2
     1ae:	7021      	strb	r1, [r4, #0]
     1b0:	e7e5      	b.n	17e <wdt_set_config+0x7a>
     1b2:	79e2      	ldrb	r2, [r4, #7]
     1b4:	b252      	sxtb	r2, r2
     1b6:	2a00      	cmp	r2, #0
     1b8:	dbfb      	blt.n	1b2 <wdt_set_config+0xae>
     1ba:	3b01      	subs	r3, #1
     1bc:	b2db      	uxtb	r3, r3
     1be:	70a3      	strb	r3, [r4, #2]
     1c0:	e7e6      	b.n	190 <wdt_set_config+0x8c>
     1c2:	7822      	ldrb	r2, [r4, #0]
     1c4:	2302      	movs	r3, #2
     1c6:	e7e8      	b.n	19a <wdt_set_config+0x96>
     1c8:	40000400 	.word	0x40000400
     1cc:	40001000 	.word	0x40001000
     1d0:	000012b1 	.word	0x000012b1
     1d4:	00001229 	.word	0x00001229
     1d8:	000012cd 	.word	0x000012cd

000001dc <wdt_register_callback>:
     1dc:	2900      	cmp	r1, #0
     1de:	d103      	bne.n	1e8 <wdt_register_callback+0xc>
     1e0:	4b02      	ldr	r3, [pc, #8]	; (1ec <wdt_register_callback+0x10>)
     1e2:	6018      	str	r0, [r3, #0]
     1e4:	0008      	movs	r0, r1
     1e6:	4770      	bx	lr
     1e8:	2017      	movs	r0, #23
     1ea:	e7fc      	b.n	1e6 <wdt_register_callback+0xa>
     1ec:	20000084 	.word	0x20000084

000001f0 <wdt_enable_callback>:
     1f0:	2800      	cmp	r0, #0
     1f2:	d106      	bne.n	202 <wdt_enable_callback+0x12>
     1f4:	2201      	movs	r2, #1
     1f6:	4b04      	ldr	r3, [pc, #16]	; (208 <wdt_enable_callback+0x18>)
     1f8:	715a      	strb	r2, [r3, #5]
     1fa:	4b04      	ldr	r3, [pc, #16]	; (20c <wdt_enable_callback+0x1c>)
     1fc:	3203      	adds	r2, #3
     1fe:	601a      	str	r2, [r3, #0]
     200:	4770      	bx	lr
     202:	2017      	movs	r0, #23
     204:	e7fc      	b.n	200 <wdt_enable_callback+0x10>
     206:	46c0      	nop			; (mov r8, r8)
     208:	40001000 	.word	0x40001000
     20c:	e000e100 	.word	0xe000e100

00000210 <WDT_Handler>:
     210:	2201      	movs	r2, #1
     212:	b510      	push	{r4, lr}
     214:	4b03      	ldr	r3, [pc, #12]	; (224 <WDT_Handler+0x14>)
     216:	719a      	strb	r2, [r3, #6]
     218:	4b03      	ldr	r3, [pc, #12]	; (228 <WDT_Handler+0x18>)
     21a:	681b      	ldr	r3, [r3, #0]
     21c:	2b00      	cmp	r3, #0
     21e:	d000      	beq.n	222 <WDT_Handler+0x12>
     220:	4798      	blx	r3
     222:	bd10      	pop	{r4, pc}
     224:	40001000 	.word	0x40001000
     228:	20000084 	.word	0x20000084

0000022c <_tc_interrupt_handler>:
     22c:	b570      	push	{r4, r5, r6, lr}
     22e:	2601      	movs	r6, #1
     230:	4b14      	ldr	r3, [pc, #80]	; (284 <_tc_interrupt_handler+0x58>)
     232:	0080      	lsls	r0, r0, #2
     234:	58c4      	ldr	r4, [r0, r3]
     236:	6823      	ldr	r3, [r4, #0]
     238:	7e22      	ldrb	r2, [r4, #24]
     23a:	7e65      	ldrb	r5, [r4, #25]
     23c:	7b9b      	ldrb	r3, [r3, #14]
     23e:	4015      	ands	r5, r2
     240:	401d      	ands	r5, r3
     242:	4235      	tst	r5, r6
     244:	d004      	beq.n	250 <_tc_interrupt_handler+0x24>
     246:	68a3      	ldr	r3, [r4, #8]
     248:	0020      	movs	r0, r4
     24a:	4798      	blx	r3
     24c:	6823      	ldr	r3, [r4, #0]
     24e:	739e      	strb	r6, [r3, #14]
     250:	2602      	movs	r6, #2
     252:	4235      	tst	r5, r6
     254:	d004      	beq.n	260 <_tc_interrupt_handler+0x34>
     256:	68e3      	ldr	r3, [r4, #12]
     258:	0020      	movs	r0, r4
     25a:	4798      	blx	r3
     25c:	6823      	ldr	r3, [r4, #0]
     25e:	739e      	strb	r6, [r3, #14]
     260:	2610      	movs	r6, #16
     262:	4235      	tst	r5, r6
     264:	d004      	beq.n	270 <_tc_interrupt_handler+0x44>
     266:	6923      	ldr	r3, [r4, #16]
     268:	0020      	movs	r0, r4
     26a:	4798      	blx	r3
     26c:	6823      	ldr	r3, [r4, #0]
     26e:	739e      	strb	r6, [r3, #14]
     270:	2620      	movs	r6, #32
     272:	4235      	tst	r5, r6
     274:	d004      	beq.n	280 <_tc_interrupt_handler+0x54>
     276:	6963      	ldr	r3, [r4, #20]
     278:	0020      	movs	r0, r4
     27a:	4798      	blx	r3
     27c:	6823      	ldr	r3, [r4, #0]
     27e:	739e      	strb	r6, [r3, #14]
     280:	bd70      	pop	{r4, r5, r6, pc}
     282:	46c0      	nop			; (mov r8, r8)
     284:	20000088 	.word	0x20000088

00000288 <TC0_Handler>:
     288:	b510      	push	{r4, lr}
     28a:	2000      	movs	r0, #0
     28c:	4b01      	ldr	r3, [pc, #4]	; (294 <TC0_Handler+0xc>)
     28e:	4798      	blx	r3
     290:	bd10      	pop	{r4, pc}
     292:	46c0      	nop			; (mov r8, r8)
     294:	0000022d 	.word	0x0000022d

00000298 <TC1_Handler>:
     298:	b510      	push	{r4, lr}
     29a:	2001      	movs	r0, #1
     29c:	4b01      	ldr	r3, [pc, #4]	; (2a4 <TC1_Handler+0xc>)
     29e:	4798      	blx	r3
     2a0:	bd10      	pop	{r4, pc}
     2a2:	46c0      	nop			; (mov r8, r8)
     2a4:	0000022d 	.word	0x0000022d

000002a8 <TC2_Handler>:
     2a8:	b510      	push	{r4, lr}
     2aa:	2002      	movs	r0, #2
     2ac:	4b01      	ldr	r3, [pc, #4]	; (2b4 <TC2_Handler+0xc>)
     2ae:	4798      	blx	r3
     2b0:	bd10      	pop	{r4, pc}
     2b2:	46c0      	nop			; (mov r8, r8)
     2b4:	0000022d 	.word	0x0000022d

000002b8 <TC3_Handler>:
     2b8:	b510      	push	{r4, lr}
     2ba:	2003      	movs	r0, #3
     2bc:	4b01      	ldr	r3, [pc, #4]	; (2c4 <TC3_Handler+0xc>)
     2be:	4798      	blx	r3
     2c0:	bd10      	pop	{r4, pc}
     2c2:	46c0      	nop			; (mov r8, r8)
     2c4:	0000022d 	.word	0x0000022d

000002c8 <TC4_Handler>:
     2c8:	b510      	push	{r4, lr}
     2ca:	2004      	movs	r0, #4
     2cc:	4b01      	ldr	r3, [pc, #4]	; (2d4 <TC4_Handler+0xc>)
     2ce:	4798      	blx	r3
     2d0:	bd10      	pop	{r4, pc}
     2d2:	46c0      	nop			; (mov r8, r8)
     2d4:	0000022d 	.word	0x0000022d

000002d8 <TC5_Handler>:
     2d8:	b510      	push	{r4, lr}
     2da:	2005      	movs	r0, #5
     2dc:	4b01      	ldr	r3, [pc, #4]	; (2e4 <TC5_Handler+0xc>)
     2de:	4798      	blx	r3
     2e0:	bd10      	pop	{r4, pc}
     2e2:	46c0      	nop			; (mov r8, r8)
     2e4:	0000022d 	.word	0x0000022d

000002e8 <TC6_Handler>:
     2e8:	b510      	push	{r4, lr}
     2ea:	2006      	movs	r0, #6
     2ec:	4b01      	ldr	r3, [pc, #4]	; (2f4 <TC6_Handler+0xc>)
     2ee:	4798      	blx	r3
     2f0:	bd10      	pop	{r4, pc}
     2f2:	46c0      	nop			; (mov r8, r8)
     2f4:	0000022d 	.word	0x0000022d

000002f8 <TC7_Handler>:
     2f8:	b510      	push	{r4, lr}
     2fa:	2007      	movs	r0, #7
     2fc:	4b01      	ldr	r3, [pc, #4]	; (304 <TC7_Handler+0xc>)
     2fe:	4798      	blx	r3
     300:	bd10      	pop	{r4, pc}
     302:	46c0      	nop			; (mov r8, r8)
     304:	0000022d 	.word	0x0000022d

00000308 <EVSYS_Handler>:
     308:	b570      	push	{r4, r5, r6, lr}
     30a:	4a0a      	ldr	r2, [pc, #40]	; (334 <EVSYS_Handler+0x2c>)
     30c:	4c0a      	ldr	r4, [pc, #40]	; (338 <EVSYS_Handler+0x30>)
     30e:	6993      	ldr	r3, [r2, #24]
     310:	68a1      	ldr	r1, [r4, #8]
     312:	6925      	ldr	r5, [r4, #16]
     314:	430b      	orrs	r3, r1
     316:	60a3      	str	r3, [r4, #8]
     318:	4b08      	ldr	r3, [pc, #32]	; (33c <EVSYS_Handler+0x34>)
     31a:	6193      	str	r3, [r2, #24]
     31c:	2d00      	cmp	r5, #0
     31e:	d104      	bne.n	32a <EVSYS_Handler+0x22>
     320:	68e2      	ldr	r2, [r4, #12]
     322:	68a3      	ldr	r3, [r4, #8]
     324:	4393      	bics	r3, r2
     326:	60a3      	str	r3, [r4, #8]
     328:	bd70      	pop	{r4, r5, r6, pc}
     32a:	6828      	ldr	r0, [r5, #0]
     32c:	686b      	ldr	r3, [r5, #4]
     32e:	4798      	blx	r3
     330:	68ad      	ldr	r5, [r5, #8]
     332:	e7f3      	b.n	31c <EVSYS_Handler+0x14>
     334:	42000400 	.word	0x42000400
     338:	20000000 	.word	0x20000000
     33c:	0f0fffff 	.word	0x0f0fffff

00000340 <_system_events_init>:
     340:	2302      	movs	r3, #2
     342:	4a05      	ldr	r2, [pc, #20]	; (358 <_system_events_init+0x18>)
     344:	6a11      	ldr	r1, [r2, #32]
     346:	430b      	orrs	r3, r1
     348:	6213      	str	r3, [r2, #32]
     34a:	2301      	movs	r3, #1
     34c:	4a03      	ldr	r2, [pc, #12]	; (35c <_system_events_init+0x1c>)
     34e:	7013      	strb	r3, [r2, #0]
     350:	7811      	ldrb	r1, [r2, #0]
     352:	4219      	tst	r1, r3
     354:	d1fc      	bne.n	350 <_system_events_init+0x10>
     356:	4770      	bx	lr
     358:	40000400 	.word	0x40000400
     35c:	42000400 	.word	0x42000400

00000360 <long_division>:
     360:	b5f0      	push	{r4, r5, r6, r7, lr}
     362:	2400      	movs	r4, #0
     364:	b089      	sub	sp, #36	; 0x24
     366:	9200      	str	r2, [sp, #0]
     368:	9301      	str	r3, [sp, #4]
     36a:	233f      	movs	r3, #63	; 0x3f
     36c:	2600      	movs	r6, #0
     36e:	2700      	movs	r7, #0
     370:	0025      	movs	r5, r4
     372:	9006      	str	r0, [sp, #24]
     374:	9107      	str	r1, [sp, #28]
     376:	9303      	str	r3, [sp, #12]
     378:	9a03      	ldr	r2, [sp, #12]
     37a:	4b13      	ldr	r3, [pc, #76]	; (3c8 <long_division+0x68>)
     37c:	2001      	movs	r0, #1
     37e:	2100      	movs	r1, #0
     380:	4798      	blx	r3
     382:	19b6      	adds	r6, r6, r6
     384:	417f      	adcs	r7, r7
     386:	9b06      	ldr	r3, [sp, #24]
     388:	9a07      	ldr	r2, [sp, #28]
     38a:	4003      	ands	r3, r0
     38c:	400a      	ands	r2, r1
     38e:	9604      	str	r6, [sp, #16]
     390:	9705      	str	r7, [sp, #20]
     392:	4313      	orrs	r3, r2
     394:	d003      	beq.n	39e <long_division+0x3e>
     396:	2301      	movs	r3, #1
     398:	4333      	orrs	r3, r6
     39a:	001e      	movs	r6, r3
     39c:	9f05      	ldr	r7, [sp, #20]
     39e:	9b01      	ldr	r3, [sp, #4]
     3a0:	42bb      	cmp	r3, r7
     3a2:	d809      	bhi.n	3b8 <long_division+0x58>
     3a4:	d102      	bne.n	3ac <long_division+0x4c>
     3a6:	9b00      	ldr	r3, [sp, #0]
     3a8:	42b3      	cmp	r3, r6
     3aa:	d805      	bhi.n	3b8 <long_division+0x58>
     3ac:	9a00      	ldr	r2, [sp, #0]
     3ae:	9b01      	ldr	r3, [sp, #4]
     3b0:	1ab6      	subs	r6, r6, r2
     3b2:	419f      	sbcs	r7, r3
     3b4:	4304      	orrs	r4, r0
     3b6:	430d      	orrs	r5, r1
     3b8:	9b03      	ldr	r3, [sp, #12]
     3ba:	1e5a      	subs	r2, r3, #1
     3bc:	9203      	str	r2, [sp, #12]
     3be:	d2db      	bcs.n	378 <long_division+0x18>
     3c0:	0020      	movs	r0, r4
     3c2:	0029      	movs	r1, r5
     3c4:	b009      	add	sp, #36	; 0x24
     3c6:	bdf0      	pop	{r4, r5, r6, r7, pc}
     3c8:	00001689 	.word	0x00001689

000003cc <_sercom_get_sync_baud_val>:
     3cc:	b510      	push	{r4, lr}
     3ce:	0849      	lsrs	r1, r1, #1
     3d0:	0004      	movs	r4, r0
     3d2:	2300      	movs	r3, #0
     3d4:	2040      	movs	r0, #64	; 0x40
     3d6:	42a1      	cmp	r1, r4
     3d8:	d201      	bcs.n	3de <_sercom_get_sync_baud_val+0x12>
     3da:	bd10      	pop	{r4, pc}
     3dc:	0003      	movs	r3, r0
     3de:	1c58      	adds	r0, r3, #1
     3e0:	1b09      	subs	r1, r1, r4
     3e2:	b280      	uxth	r0, r0
     3e4:	428c      	cmp	r4, r1
     3e6:	d9f9      	bls.n	3dc <_sercom_get_sync_baud_val+0x10>
     3e8:	2040      	movs	r0, #64	; 0x40
     3ea:	2bff      	cmp	r3, #255	; 0xff
     3ec:	d8f5      	bhi.n	3da <_sercom_get_sync_baud_val+0xe>
     3ee:	8013      	strh	r3, [r2, #0]
     3f0:	2000      	movs	r0, #0
     3f2:	e7f2      	b.n	3da <_sercom_get_sync_baud_val+0xe>

000003f4 <_sercom_get_async_baud_val>:
     3f4:	b5f0      	push	{r4, r5, r6, r7, lr}
     3f6:	b085      	sub	sp, #20
     3f8:	001e      	movs	r6, r3
     3fa:	ab0a      	add	r3, sp, #40	; 0x28
     3fc:	000d      	movs	r5, r1
     3fe:	7819      	ldrb	r1, [r3, #0]
     400:	0003      	movs	r3, r0
     402:	434b      	muls	r3, r1
     404:	9203      	str	r2, [sp, #12]
     406:	2740      	movs	r7, #64	; 0x40
     408:	42ab      	cmp	r3, r5
     40a:	d817      	bhi.n	43c <_sercom_get_async_baud_val+0x48>
     40c:	2e00      	cmp	r6, #0
     40e:	d118      	bne.n	442 <_sercom_get_async_baud_val+0x4e>
     410:	0002      	movs	r2, r0
     412:	0033      	movs	r3, r6
     414:	0008      	movs	r0, r1
     416:	4c1b      	ldr	r4, [pc, #108]	; (484 <_sercom_get_async_baud_val+0x90>)
     418:	0031      	movs	r1, r6
     41a:	47a0      	blx	r4
     41c:	002a      	movs	r2, r5
     41e:	0001      	movs	r1, r0
     420:	0033      	movs	r3, r6
     422:	4c19      	ldr	r4, [pc, #100]	; (488 <_sercom_get_async_baud_val+0x94>)
     424:	0030      	movs	r0, r6
     426:	47a0      	blx	r4
     428:	2200      	movs	r2, #0
     42a:	2301      	movs	r3, #1
     42c:	1a12      	subs	r2, r2, r0
     42e:	418b      	sbcs	r3, r1
     430:	0c14      	lsrs	r4, r2, #16
     432:	0418      	lsls	r0, r3, #16
     434:	4304      	orrs	r4, r0
     436:	2700      	movs	r7, #0
     438:	9b03      	ldr	r3, [sp, #12]
     43a:	801c      	strh	r4, [r3, #0]
     43c:	0038      	movs	r0, r7
     43e:	b005      	add	sp, #20
     440:	bdf0      	pop	{r4, r5, r6, r7, pc}
     442:	2400      	movs	r4, #0
     444:	2e01      	cmp	r6, #1
     446:	d1f6      	bne.n	436 <_sercom_get_async_baud_val+0x42>
     448:	000a      	movs	r2, r1
     44a:	0023      	movs	r3, r4
     44c:	0021      	movs	r1, r4
     44e:	4e0d      	ldr	r6, [pc, #52]	; (484 <_sercom_get_async_baud_val+0x90>)
     450:	47b0      	blx	r6
     452:	9000      	str	r0, [sp, #0]
     454:	9101      	str	r1, [sp, #4]
     456:	000b      	movs	r3, r1
     458:	0002      	movs	r2, r0
     45a:	0021      	movs	r1, r4
     45c:	0028      	movs	r0, r5
     45e:	4c0a      	ldr	r4, [pc, #40]	; (488 <_sercom_get_async_baud_val+0x94>)
     460:	47a0      	blx	r4
     462:	2380      	movs	r3, #128	; 0x80
     464:	0006      	movs	r6, r0
     466:	019b      	lsls	r3, r3, #6
     468:	4298      	cmp	r0, r3
     46a:	d8e7      	bhi.n	43c <_sercom_get_async_baud_val+0x48>
     46c:	9a00      	ldr	r2, [sp, #0]
     46e:	9b01      	ldr	r3, [sp, #4]
     470:	0f69      	lsrs	r1, r5, #29
     472:	00e8      	lsls	r0, r5, #3
     474:	47a0      	blx	r4
     476:	00f4      	lsls	r4, r6, #3
     478:	1b04      	subs	r4, r0, r4
     47a:	b2e4      	uxtb	r4, r4
     47c:	0364      	lsls	r4, r4, #13
     47e:	4334      	orrs	r4, r6
     480:	e7d9      	b.n	436 <_sercom_get_async_baud_val+0x42>
     482:	46c0      	nop			; (mov r8, r8)
     484:	000016a1 	.word	0x000016a1
     488:	00000361 	.word	0x00000361

0000048c <sercom_set_gclk_generator>:
     48c:	b537      	push	{r0, r1, r2, r4, r5, lr}
     48e:	4c0d      	ldr	r4, [pc, #52]	; (4c4 <sercom_set_gclk_generator+0x38>)
     490:	0005      	movs	r5, r0
     492:	7823      	ldrb	r3, [r4, #0]
     494:	2b00      	cmp	r3, #0
     496:	d001      	beq.n	49c <sercom_set_gclk_generator+0x10>
     498:	2900      	cmp	r1, #0
     49a:	d00c      	beq.n	4b6 <sercom_set_gclk_generator+0x2a>
     49c:	a901      	add	r1, sp, #4
     49e:	200c      	movs	r0, #12
     4a0:	4b09      	ldr	r3, [pc, #36]	; (4c8 <sercom_set_gclk_generator+0x3c>)
     4a2:	700d      	strb	r5, [r1, #0]
     4a4:	4798      	blx	r3
     4a6:	200c      	movs	r0, #12
     4a8:	4b08      	ldr	r3, [pc, #32]	; (4cc <sercom_set_gclk_generator+0x40>)
     4aa:	4798      	blx	r3
     4ac:	2301      	movs	r3, #1
     4ae:	2000      	movs	r0, #0
     4b0:	7065      	strb	r5, [r4, #1]
     4b2:	7023      	strb	r3, [r4, #0]
     4b4:	bd3e      	pop	{r1, r2, r3, r4, r5, pc}
     4b6:	7863      	ldrb	r3, [r4, #1]
     4b8:	0008      	movs	r0, r1
     4ba:	42ab      	cmp	r3, r5
     4bc:	d0fa      	beq.n	4b4 <sercom_set_gclk_generator+0x28>
     4be:	201d      	movs	r0, #29
     4c0:	e7f8      	b.n	4b4 <sercom_set_gclk_generator+0x28>
     4c2:	46c0      	nop			; (mov r8, r8)
     4c4:	2000004c 	.word	0x2000004c
     4c8:	000012b1 	.word	0x000012b1
     4cc:	00001229 	.word	0x00001229

000004d0 <_sercom_get_default_pad>:
     4d0:	4a39      	ldr	r2, [pc, #228]	; (5b8 <_sercom_get_default_pad+0xe8>)
     4d2:	0003      	movs	r3, r0
     4d4:	b500      	push	{lr}
     4d6:	0008      	movs	r0, r1
     4d8:	4293      	cmp	r3, r2
     4da:	d033      	beq.n	544 <_sercom_get_default_pad+0x74>
     4dc:	d807      	bhi.n	4ee <_sercom_get_default_pad+0x1e>
     4de:	4a37      	ldr	r2, [pc, #220]	; (5bc <_sercom_get_default_pad+0xec>)
     4e0:	4293      	cmp	r3, r2
     4e2:	d014      	beq.n	50e <_sercom_get_default_pad+0x3e>
     4e4:	4a36      	ldr	r2, [pc, #216]	; (5c0 <_sercom_get_default_pad+0xf0>)
     4e6:	4293      	cmp	r3, r2
     4e8:	d01f      	beq.n	52a <_sercom_get_default_pad+0x5a>
     4ea:	2300      	movs	r3, #0
     4ec:	e017      	b.n	51e <_sercom_get_default_pad+0x4e>
     4ee:	4a35      	ldr	r2, [pc, #212]	; (5c4 <_sercom_get_default_pad+0xf4>)
     4f0:	4293      	cmp	r3, r2
     4f2:	d03a      	beq.n	56a <_sercom_get_default_pad+0x9a>
     4f4:	4a34      	ldr	r2, [pc, #208]	; (5c8 <_sercom_get_default_pad+0xf8>)
     4f6:	4293      	cmp	r3, r2
     4f8:	d044      	beq.n	584 <_sercom_get_default_pad+0xb4>
     4fa:	4a34      	ldr	r2, [pc, #208]	; (5cc <_sercom_get_default_pad+0xfc>)
     4fc:	4293      	cmp	r3, r2
     4fe:	d1f4      	bne.n	4ea <_sercom_get_default_pad+0x1a>
     500:	2300      	movs	r3, #0
     502:	2903      	cmp	r1, #3
     504:	d80b      	bhi.n	51e <_sercom_get_default_pad+0x4e>
     506:	f001 f829 	bl	155c <__gnu_thumb1_case_uqi>
     50a:	2a50      	.short	0x2a50
     50c:	2e2c      	.short	0x2e2c
     50e:	2300      	movs	r3, #0
     510:	2903      	cmp	r1, #3
     512:	d804      	bhi.n	51e <_sercom_get_default_pad+0x4e>
     514:	f001 f822 	bl	155c <__gnu_thumb1_case_uqi>
     518:	07050243 	.word	0x07050243
     51c:	4b2c      	ldr	r3, [pc, #176]	; (5d0 <_sercom_get_default_pad+0x100>)
     51e:	0018      	movs	r0, r3
     520:	bd00      	pop	{pc}
     522:	4b2c      	ldr	r3, [pc, #176]	; (5d4 <_sercom_get_default_pad+0x104>)
     524:	e7fb      	b.n	51e <_sercom_get_default_pad+0x4e>
     526:	4b2c      	ldr	r3, [pc, #176]	; (5d8 <_sercom_get_default_pad+0x108>)
     528:	e7f9      	b.n	51e <_sercom_get_default_pad+0x4e>
     52a:	2300      	movs	r3, #0
     52c:	2903      	cmp	r1, #3
     52e:	d8f6      	bhi.n	51e <_sercom_get_default_pad+0x4e>
     530:	f001 f814 	bl	155c <__gnu_thumb1_case_uqi>
     534:	06040237 	.word	0x06040237
     538:	4b28      	ldr	r3, [pc, #160]	; (5dc <_sercom_get_default_pad+0x10c>)
     53a:	e7f0      	b.n	51e <_sercom_get_default_pad+0x4e>
     53c:	4b28      	ldr	r3, [pc, #160]	; (5e0 <_sercom_get_default_pad+0x110>)
     53e:	e7ee      	b.n	51e <_sercom_get_default_pad+0x4e>
     540:	4b28      	ldr	r3, [pc, #160]	; (5e4 <_sercom_get_default_pad+0x114>)
     542:	e7ec      	b.n	51e <_sercom_get_default_pad+0x4e>
     544:	2300      	movs	r3, #0
     546:	2903      	cmp	r1, #3
     548:	d8e9      	bhi.n	51e <_sercom_get_default_pad+0x4e>
     54a:	f001 f807 	bl	155c <__gnu_thumb1_case_uqi>
     54e:	022c      	.short	0x022c
     550:	0604      	.short	0x0604
     552:	4b25      	ldr	r3, [pc, #148]	; (5e8 <_sercom_get_default_pad+0x118>)
     554:	e7e3      	b.n	51e <_sercom_get_default_pad+0x4e>
     556:	4b25      	ldr	r3, [pc, #148]	; (5ec <_sercom_get_default_pad+0x11c>)
     558:	e7e1      	b.n	51e <_sercom_get_default_pad+0x4e>
     55a:	4b25      	ldr	r3, [pc, #148]	; (5f0 <_sercom_get_default_pad+0x120>)
     55c:	e7df      	b.n	51e <_sercom_get_default_pad+0x4e>
     55e:	4b25      	ldr	r3, [pc, #148]	; (5f4 <_sercom_get_default_pad+0x124>)
     560:	e7dd      	b.n	51e <_sercom_get_default_pad+0x4e>
     562:	4b25      	ldr	r3, [pc, #148]	; (5f8 <_sercom_get_default_pad+0x128>)
     564:	e7db      	b.n	51e <_sercom_get_default_pad+0x4e>
     566:	4b25      	ldr	r3, [pc, #148]	; (5fc <_sercom_get_default_pad+0x12c>)
     568:	e7d9      	b.n	51e <_sercom_get_default_pad+0x4e>
     56a:	2300      	movs	r3, #0
     56c:	2903      	cmp	r1, #3
     56e:	d8d6      	bhi.n	51e <_sercom_get_default_pad+0x4e>
     570:	f000 fff4 	bl	155c <__gnu_thumb1_case_uqi>
     574:	0604021d 	.word	0x0604021d
     578:	4b21      	ldr	r3, [pc, #132]	; (600 <_sercom_get_default_pad+0x130>)
     57a:	e7d0      	b.n	51e <_sercom_get_default_pad+0x4e>
     57c:	4b21      	ldr	r3, [pc, #132]	; (604 <_sercom_get_default_pad+0x134>)
     57e:	e7ce      	b.n	51e <_sercom_get_default_pad+0x4e>
     580:	4b21      	ldr	r3, [pc, #132]	; (608 <_sercom_get_default_pad+0x138>)
     582:	e7cc      	b.n	51e <_sercom_get_default_pad+0x4e>
     584:	2300      	movs	r3, #0
     586:	2903      	cmp	r1, #3
     588:	d8c9      	bhi.n	51e <_sercom_get_default_pad+0x4e>
     58a:	f000 ffe7 	bl	155c <__gnu_thumb1_case_uqi>
     58e:	0212      	.short	0x0212
     590:	0604      	.short	0x0604
     592:	4b1e      	ldr	r3, [pc, #120]	; (60c <_sercom_get_default_pad+0x13c>)
     594:	e7c3      	b.n	51e <_sercom_get_default_pad+0x4e>
     596:	4b1e      	ldr	r3, [pc, #120]	; (610 <_sercom_get_default_pad+0x140>)
     598:	e7c1      	b.n	51e <_sercom_get_default_pad+0x4e>
     59a:	4b1e      	ldr	r3, [pc, #120]	; (614 <_sercom_get_default_pad+0x144>)
     59c:	e7bf      	b.n	51e <_sercom_get_default_pad+0x4e>
     59e:	4b1e      	ldr	r3, [pc, #120]	; (618 <_sercom_get_default_pad+0x148>)
     5a0:	e7bd      	b.n	51e <_sercom_get_default_pad+0x4e>
     5a2:	2303      	movs	r3, #3
     5a4:	e7bb      	b.n	51e <_sercom_get_default_pad+0x4e>
     5a6:	4b1d      	ldr	r3, [pc, #116]	; (61c <_sercom_get_default_pad+0x14c>)
     5a8:	e7b9      	b.n	51e <_sercom_get_default_pad+0x4e>
     5aa:	4b1d      	ldr	r3, [pc, #116]	; (620 <_sercom_get_default_pad+0x150>)
     5ac:	e7b7      	b.n	51e <_sercom_get_default_pad+0x4e>
     5ae:	4b1d      	ldr	r3, [pc, #116]	; (624 <_sercom_get_default_pad+0x154>)
     5b0:	e7b5      	b.n	51e <_sercom_get_default_pad+0x4e>
     5b2:	4b1d      	ldr	r3, [pc, #116]	; (628 <_sercom_get_default_pad+0x158>)
     5b4:	e7b3      	b.n	51e <_sercom_get_default_pad+0x4e>
     5b6:	46c0      	nop			; (mov r8, r8)
     5b8:	42001000 	.word	0x42001000
     5bc:	42000800 	.word	0x42000800
     5c0:	42000c00 	.word	0x42000c00
     5c4:	42001800 	.word	0x42001800
     5c8:	42001c00 	.word	0x42001c00
     5cc:	42001400 	.word	0x42001400
     5d0:	00050003 	.word	0x00050003
     5d4:	00060003 	.word	0x00060003
     5d8:	00070003 	.word	0x00070003
     5dc:	00010003 	.word	0x00010003
     5e0:	001e0003 	.word	0x001e0003
     5e4:	001f0003 	.word	0x001f0003
     5e8:	00090003 	.word	0x00090003
     5ec:	000a0003 	.word	0x000a0003
     5f0:	000b0003 	.word	0x000b0003
     5f4:	00110003 	.word	0x00110003
     5f8:	00120003 	.word	0x00120003
     5fc:	00130003 	.word	0x00130003
     600:	000d0003 	.word	0x000d0003
     604:	000e0003 	.word	0x000e0003
     608:	000f0003 	.word	0x000f0003
     60c:	00170003 	.word	0x00170003
     610:	00180003 	.word	0x00180003
     614:	00190003 	.word	0x00190003
     618:	00040003 	.word	0x00040003
     61c:	00080003 	.word	0x00080003
     620:	00100003 	.word	0x00100003
     624:	000c0003 	.word	0x000c0003
     628:	00160003 	.word	0x00160003

0000062c <_sercom_get_sercom_inst_index>:
     62c:	b570      	push	{r4, r5, r6, lr}
     62e:	b086      	sub	sp, #24
     630:	4669      	mov	r1, sp
     632:	4b09      	ldr	r3, [pc, #36]	; (658 <_sercom_get_sercom_inst_index+0x2c>)
     634:	466a      	mov	r2, sp
     636:	cb70      	ldmia	r3!, {r4, r5, r6}
     638:	c170      	stmia	r1!, {r4, r5, r6}
     63a:	cb70      	ldmia	r3!, {r4, r5, r6}
     63c:	c170      	stmia	r1!, {r4, r5, r6}
     63e:	2300      	movs	r3, #0
     640:	0099      	lsls	r1, r3, #2
     642:	5851      	ldr	r1, [r2, r1]
     644:	4281      	cmp	r1, r0
     646:	d102      	bne.n	64e <_sercom_get_sercom_inst_index+0x22>
     648:	b2d8      	uxtb	r0, r3
     64a:	b006      	add	sp, #24
     64c:	bd70      	pop	{r4, r5, r6, pc}
     64e:	3301      	adds	r3, #1
     650:	2b06      	cmp	r3, #6
     652:	d1f5      	bne.n	640 <_sercom_get_sercom_inst_index+0x14>
     654:	2000      	movs	r0, #0
     656:	e7f8      	b.n	64a <_sercom_get_sercom_inst_index+0x1e>
     658:	00001750 	.word	0x00001750

0000065c <usart_write_callback>:
     65c:	46c0      	nop			; (mov r8, r8)
     65e:	4770      	bx	lr

00000660 <config_UART>:
     660:	2380      	movs	r3, #128	; 0x80
     662:	b530      	push	{r4, r5, lr}
     664:	05db      	lsls	r3, r3, #23
     666:	b08d      	sub	sp, #52	; 0x34
     668:	4669      	mov	r1, sp
     66a:	9300      	str	r3, [sp, #0]
     66c:	2300      	movs	r3, #0
     66e:	22ff      	movs	r2, #255	; 0xff
     670:	9301      	str	r3, [sp, #4]
     672:	728b      	strb	r3, [r1, #10]
     674:	72cb      	strb	r3, [r1, #11]
     676:	758b      	strb	r3, [r1, #22]
     678:	75cb      	strb	r3, [r1, #23]
     67a:	9306      	str	r3, [sp, #24]
     67c:	770b      	strb	r3, [r1, #28]
     67e:	774b      	strb	r3, [r1, #29]
     680:	2380      	movs	r3, #128	; 0x80
     682:	810a      	strh	r2, [r1, #8]
     684:	2296      	movs	r2, #150	; 0x96
     686:	035b      	lsls	r3, r3, #13
     688:	9303      	str	r3, [sp, #12]
     68a:	4b16      	ldr	r3, [pc, #88]	; (6e4 <config_UART+0x84>)
     68c:	0192      	lsls	r2, r2, #6
     68e:	9308      	str	r3, [sp, #32]
     690:	4b15      	ldr	r3, [pc, #84]	; (6e8 <config_UART+0x88>)
     692:	9204      	str	r2, [sp, #16]
     694:	9309      	str	r3, [sp, #36]	; 0x24
     696:	2301      	movs	r3, #1
     698:	2201      	movs	r2, #1
     69a:	425b      	negs	r3, r3
     69c:	750a      	strb	r2, [r1, #20]
     69e:	754a      	strb	r2, [r1, #21]
     6a0:	930a      	str	r3, [sp, #40]	; 0x28
     6a2:	930b      	str	r3, [sp, #44]	; 0x2c
     6a4:	4d11      	ldr	r5, [pc, #68]	; (6ec <config_UART+0x8c>)
     6a6:	466a      	mov	r2, sp
     6a8:	4911      	ldr	r1, [pc, #68]	; (6f0 <config_UART+0x90>)
     6aa:	0028      	movs	r0, r5
     6ac:	4b11      	ldr	r3, [pc, #68]	; (6f4 <config_UART+0x94>)
     6ae:	4798      	blx	r3
     6b0:	2800      	cmp	r0, #0
     6b2:	d114      	bne.n	6de <config_UART+0x7e>
     6b4:	682c      	ldr	r4, [r5, #0]
     6b6:	4b10      	ldr	r3, [pc, #64]	; (6f8 <config_UART+0x98>)
     6b8:	0020      	movs	r0, r4
     6ba:	4798      	blx	r3
     6bc:	231f      	movs	r3, #31
     6be:	4018      	ands	r0, r3
     6c0:	3b1e      	subs	r3, #30
     6c2:	4083      	lsls	r3, r0
     6c4:	4a0d      	ldr	r2, [pc, #52]	; (6fc <config_UART+0x9c>)
     6c6:	6013      	str	r3, [r2, #0]
     6c8:	682a      	ldr	r2, [r5, #0]
     6ca:	8a13      	ldrh	r3, [r2, #16]
     6cc:	b21b      	sxth	r3, r3
     6ce:	2b00      	cmp	r3, #0
     6d0:	dbfb      	blt.n	6ca <config_UART+0x6a>
     6d2:	2302      	movs	r3, #2
     6d4:	6822      	ldr	r2, [r4, #0]
     6d6:	4313      	orrs	r3, r2
     6d8:	6023      	str	r3, [r4, #0]
     6da:	b00d      	add	sp, #52	; 0x34
     6dc:	bd30      	pop	{r4, r5, pc}
     6de:	46c0      	nop			; (mov r8, r8)
     6e0:	e7e0      	b.n	6a4 <config_UART+0x44>
     6e2:	46c0      	nop			; (mov r8, r8)
     6e4:	00280003 	.word	0x00280003
     6e8:	00290003 	.word	0x00290003
     6ec:	200000ac 	.word	0x200000ac
     6f0:	42001800 	.word	0x42001800
     6f4:	0000079d 	.word	0x0000079d
     6f8:	00000c29 	.word	0x00000c29
     6fc:	e000e100 	.word	0xe000e100

00000700 <config_UART_Callback>:
     700:	b570      	push	{r4, r5, r6, lr}
     702:	4c08      	ldr	r4, [pc, #32]	; (724 <config_UART_Callback+0x24>)
     704:	4d08      	ldr	r5, [pc, #32]	; (728 <config_UART_Callback+0x28>)
     706:	0020      	movs	r0, r4
     708:	2200      	movs	r2, #0
     70a:	4908      	ldr	r1, [pc, #32]	; (72c <config_UART_Callback+0x2c>)
     70c:	47a8      	blx	r5
     70e:	0020      	movs	r0, r4
     710:	2201      	movs	r2, #1
     712:	4907      	ldr	r1, [pc, #28]	; (730 <config_UART_Callback+0x30>)
     714:	47a8      	blx	r5
     716:	2303      	movs	r3, #3
     718:	3402      	adds	r4, #2
     71a:	7fe2      	ldrb	r2, [r4, #31]
     71c:	4313      	orrs	r3, r2
     71e:	77e3      	strb	r3, [r4, #31]
     720:	bd70      	pop	{r4, r5, r6, pc}
     722:	46c0      	nop			; (mov r8, r8)
     724:	200000ac 	.word	0x200000ac
     728:	00000aa5 	.word	0x00000aa5
     72c:	0000065d 	.word	0x0000065d
     730:	00000751 	.word	0x00000751

00000734 <UART_Continuous>:
     734:	b510      	push	{r4, lr}
     736:	2201      	movs	r2, #1
     738:	4902      	ldr	r1, [pc, #8]	; (744 <UART_Continuous+0x10>)
     73a:	4803      	ldr	r0, [pc, #12]	; (748 <UART_Continuous+0x14>)
     73c:	4b03      	ldr	r3, [pc, #12]	; (74c <UART_Continuous+0x18>)
     73e:	4798      	blx	r3
     740:	bd10      	pop	{r4, pc}
     742:	46c0      	nop			; (mov r8, r8)
     744:	200000a8 	.word	0x200000a8
     748:	200000ac 	.word	0x200000ac
     74c:	00000abd 	.word	0x00000abd

00000750 <usart_read_callback>:
     750:	b510      	push	{r4, lr}
     752:	2400      	movs	r4, #0
     754:	4809      	ldr	r0, [pc, #36]	; (77c <usart_read_callback+0x2c>)
     756:	4a0a      	ldr	r2, [pc, #40]	; (780 <usart_read_callback+0x30>)
     758:	8803      	ldrh	r3, [r0, #0]
     75a:	7811      	ldrb	r1, [r2, #0]
     75c:	4a09      	ldr	r2, [pc, #36]	; (784 <usart_read_callback+0x34>)
     75e:	54d1      	strb	r1, [r2, r3]
     760:	18d2      	adds	r2, r2, r3
     762:	3301      	adds	r3, #1
     764:	7054      	strb	r4, [r2, #1]
     766:	7094      	strb	r4, [r2, #2]
     768:	8003      	strh	r3, [r0, #0]
     76a:	290a      	cmp	r1, #10
     76c:	d102      	bne.n	774 <usart_read_callback+0x24>
     76e:	2201      	movs	r2, #1
     770:	4b05      	ldr	r3, [pc, #20]	; (788 <usart_read_callback+0x38>)
     772:	701a      	strb	r2, [r3, #0]
     774:	4b05      	ldr	r3, [pc, #20]	; (78c <usart_read_callback+0x3c>)
     776:	4798      	blx	r3
     778:	bd10      	pop	{r4, pc}
     77a:	46c0      	nop			; (mov r8, r8)
     77c:	20000382 	.word	0x20000382
     780:	200000a8 	.word	0x200000a8
     784:	200000d2 	.word	0x200000d2
     788:	20000380 	.word	0x20000380
     78c:	00000735 	.word	0x00000735

00000790 <_usart_wait_for_sync>:
     790:	6802      	ldr	r2, [r0, #0]
     792:	8a13      	ldrh	r3, [r2, #16]
     794:	b21b      	sxth	r3, r3
     796:	2b00      	cmp	r3, #0
     798:	dbfb      	blt.n	792 <_usart_wait_for_sync+0x2>
     79a:	4770      	bx	lr

0000079c <usart_init>:
     79c:	b5f0      	push	{r4, r5, r6, r7, lr}
     79e:	0007      	movs	r7, r0
     7a0:	b08f      	sub	sp, #60	; 0x3c
     7a2:	4b73      	ldr	r3, [pc, #460]	; (970 <usart_init+0x1d4>)
     7a4:	6039      	str	r1, [r7, #0]
     7a6:	0008      	movs	r0, r1
     7a8:	0016      	movs	r6, r2
     7aa:	9102      	str	r1, [sp, #8]
     7ac:	4798      	blx	r3
     7ae:	9b02      	ldr	r3, [sp, #8]
     7b0:	0004      	movs	r4, r0
     7b2:	681a      	ldr	r2, [r3, #0]
     7b4:	2301      	movs	r3, #1
     7b6:	2005      	movs	r0, #5
     7b8:	421a      	tst	r2, r3
     7ba:	d000      	beq.n	7be <usart_init+0x22>
     7bc:	e0bd      	b.n	93a <usart_init+0x19e>
     7be:	9a02      	ldr	r2, [sp, #8]
     7c0:	3017      	adds	r0, #23
     7c2:	6815      	ldr	r5, [r2, #0]
     7c4:	2202      	movs	r2, #2
     7c6:	4015      	ands	r5, r2
     7c8:	d000      	beq.n	7cc <usart_init+0x30>
     7ca:	e0b6      	b.n	93a <usart_init+0x19e>
     7cc:	1ca0      	adds	r0, r4, #2
     7ce:	4083      	lsls	r3, r0
     7d0:	4a68      	ldr	r2, [pc, #416]	; (974 <usart_init+0x1d8>)
     7d2:	340d      	adds	r4, #13
     7d4:	6a11      	ldr	r1, [r2, #32]
     7d6:	b2e4      	uxtb	r4, r4
     7d8:	430b      	orrs	r3, r1
     7da:	6213      	str	r3, [r2, #32]
     7dc:	7f73      	ldrb	r3, [r6, #29]
     7de:	a908      	add	r1, sp, #32
     7e0:	700b      	strb	r3, [r1, #0]
     7e2:	0020      	movs	r0, r4
     7e4:	4b64      	ldr	r3, [pc, #400]	; (978 <usart_init+0x1dc>)
     7e6:	4798      	blx	r3
     7e8:	0020      	movs	r0, r4
     7ea:	4b64      	ldr	r3, [pc, #400]	; (97c <usart_init+0x1e0>)
     7ec:	4798      	blx	r3
     7ee:	0029      	movs	r1, r5
     7f0:	4b63      	ldr	r3, [pc, #396]	; (980 <usart_init+0x1e4>)
     7f2:	7f70      	ldrb	r0, [r6, #29]
     7f4:	4798      	blx	r3
     7f6:	7af3      	ldrb	r3, [r6, #11]
     7f8:	ac0a      	add	r4, sp, #40	; 0x28
     7fa:	717b      	strb	r3, [r7, #5]
     7fc:	7d33      	ldrb	r3, [r6, #20]
     7fe:	71bb      	strb	r3, [r7, #6]
     800:	7d73      	ldrb	r3, [r6, #21]
     802:	71fb      	strb	r3, [r7, #7]
     804:	683b      	ldr	r3, [r7, #0]
     806:	9303      	str	r3, [sp, #12]
     808:	0018      	movs	r0, r3
     80a:	4b59      	ldr	r3, [pc, #356]	; (970 <usart_init+0x1d4>)
     80c:	4798      	blx	r3
     80e:	6833      	ldr	r3, [r6, #0]
     810:	8025      	strh	r5, [r4, #0]
     812:	9304      	str	r3, [sp, #16]
     814:	68f3      	ldr	r3, [r6, #12]
     816:	6875      	ldr	r5, [r6, #4]
     818:	9305      	str	r3, [sp, #20]
     81a:	7db3      	ldrb	r3, [r6, #22]
     81c:	300d      	adds	r0, #13
     81e:	9306      	str	r3, [sp, #24]
     820:	2d00      	cmp	r5, #0
     822:	d100      	bne.n	826 <usart_init+0x8a>
     824:	e08b      	b.n	93e <usart_init+0x1a2>
     826:	2380      	movs	r3, #128	; 0x80
     828:	055b      	lsls	r3, r3, #21
     82a:	429d      	cmp	r5, r3
     82c:	d10e      	bne.n	84c <usart_init+0xb0>
     82e:	7df3      	ldrb	r3, [r6, #23]
     830:	2b00      	cmp	r3, #0
     832:	d10b      	bne.n	84c <usart_init+0xb0>
     834:	6933      	ldr	r3, [r6, #16]
     836:	b2c0      	uxtb	r0, r0
     838:	9307      	str	r3, [sp, #28]
     83a:	4b52      	ldr	r3, [pc, #328]	; (984 <usart_init+0x1e8>)
     83c:	4798      	blx	r3
     83e:	0022      	movs	r2, r4
     840:	0001      	movs	r1, r0
     842:	4b51      	ldr	r3, [pc, #324]	; (988 <usart_init+0x1ec>)
     844:	9807      	ldr	r0, [sp, #28]
     846:	4798      	blx	r3
     848:	2800      	cmp	r0, #0
     84a:	d176      	bne.n	93a <usart_init+0x19e>
     84c:	4b4f      	ldr	r3, [pc, #316]	; (98c <usart_init+0x1f0>)
     84e:	0038      	movs	r0, r7
     850:	4798      	blx	r3
     852:	ab06      	add	r3, sp, #24
     854:	8a1b      	ldrh	r3, [r3, #16]
     856:	9a03      	ldr	r2, [sp, #12]
     858:	8153      	strh	r3, [r2, #10]
     85a:	9b04      	ldr	r3, [sp, #16]
     85c:	9a05      	ldr	r2, [sp, #20]
     85e:	4313      	orrs	r3, r2
     860:	431d      	orrs	r5, r3
     862:	9b06      	ldr	r3, [sp, #24]
     864:	075c      	lsls	r4, r3, #29
     866:	7df3      	ldrb	r3, [r6, #23]
     868:	432c      	orrs	r4, r5
     86a:	2b00      	cmp	r3, #0
     86c:	d101      	bne.n	872 <usart_init+0xd6>
     86e:	3304      	adds	r3, #4
     870:	431c      	orrs	r4, r3
     872:	7d35      	ldrb	r5, [r6, #20]
     874:	7d73      	ldrb	r3, [r6, #21]
     876:	046d      	lsls	r5, r5, #17
     878:	041b      	lsls	r3, r3, #16
     87a:	432b      	orrs	r3, r5
     87c:	7af2      	ldrb	r2, [r6, #11]
     87e:	7ab5      	ldrb	r5, [r6, #10]
     880:	4315      	orrs	r5, r2
     882:	431d      	orrs	r5, r3
     884:	8933      	ldrh	r3, [r6, #8]
     886:	2bff      	cmp	r3, #255	; 0xff
     888:	d003      	beq.n	892 <usart_init+0xf6>
     88a:	2280      	movs	r2, #128	; 0x80
     88c:	0452      	lsls	r2, r2, #17
     88e:	4314      	orrs	r4, r2
     890:	431d      	orrs	r5, r3
     892:	7f33      	ldrb	r3, [r6, #28]
     894:	2b00      	cmp	r3, #0
     896:	d103      	bne.n	8a0 <usart_init+0x104>
     898:	4b3d      	ldr	r3, [pc, #244]	; (990 <usart_init+0x1f4>)
     89a:	789b      	ldrb	r3, [r3, #2]
     89c:	079b      	lsls	r3, r3, #30
     89e:	d501      	bpl.n	8a4 <usart_init+0x108>
     8a0:	2380      	movs	r3, #128	; 0x80
     8a2:	431c      	orrs	r4, r3
     8a4:	0038      	movs	r0, r7
     8a6:	4b39      	ldr	r3, [pc, #228]	; (98c <usart_init+0x1f0>)
     8a8:	4798      	blx	r3
     8aa:	9b03      	ldr	r3, [sp, #12]
     8ac:	0038      	movs	r0, r7
     8ae:	605d      	str	r5, [r3, #4]
     8b0:	4b36      	ldr	r3, [pc, #216]	; (98c <usart_init+0x1f0>)
     8b2:	4798      	blx	r3
     8b4:	9b03      	ldr	r3, [sp, #12]
     8b6:	2500      	movs	r5, #0
     8b8:	601c      	str	r4, [r3, #0]
     8ba:	2380      	movs	r3, #128	; 0x80
     8bc:	ac09      	add	r4, sp, #36	; 0x24
     8be:	7023      	strb	r3, [r4, #0]
     8c0:	6a33      	ldr	r3, [r6, #32]
     8c2:	7065      	strb	r5, [r4, #1]
     8c4:	930a      	str	r3, [sp, #40]	; 0x28
     8c6:	6a73      	ldr	r3, [r6, #36]	; 0x24
     8c8:	70e5      	strb	r5, [r4, #3]
     8ca:	930b      	str	r3, [sp, #44]	; 0x2c
     8cc:	6ab3      	ldr	r3, [r6, #40]	; 0x28
     8ce:	70a5      	strb	r5, [r4, #2]
     8d0:	930c      	str	r3, [sp, #48]	; 0x30
     8d2:	6af3      	ldr	r3, [r6, #44]	; 0x2c
     8d4:	9303      	str	r3, [sp, #12]
     8d6:	930d      	str	r3, [sp, #52]	; 0x34
     8d8:	2010      	movs	r0, #16
     8da:	aa06      	add	r2, sp, #24
     8dc:	00ab      	lsls	r3, r5, #2
     8de:	1812      	adds	r2, r2, r0
     8e0:	58d0      	ldr	r0, [r2, r3]
     8e2:	b2e9      	uxtb	r1, r5
     8e4:	2800      	cmp	r0, #0
     8e6:	d102      	bne.n	8ee <usart_init+0x152>
     8e8:	9802      	ldr	r0, [sp, #8]
     8ea:	4b2a      	ldr	r3, [pc, #168]	; (994 <usart_init+0x1f8>)
     8ec:	4798      	blx	r3
     8ee:	1c43      	adds	r3, r0, #1
     8f0:	d005      	beq.n	8fe <usart_init+0x162>
     8f2:	7020      	strb	r0, [r4, #0]
     8f4:	0c00      	lsrs	r0, r0, #16
     8f6:	b2c0      	uxtb	r0, r0
     8f8:	0021      	movs	r1, r4
     8fa:	4b27      	ldr	r3, [pc, #156]	; (998 <usart_init+0x1fc>)
     8fc:	4798      	blx	r3
     8fe:	3501      	adds	r5, #1
     900:	2d04      	cmp	r5, #4
     902:	d1e9      	bne.n	8d8 <usart_init+0x13c>
     904:	2400      	movs	r4, #0
     906:	1c7b      	adds	r3, r7, #1
     908:	83fc      	strh	r4, [r7, #30]
     90a:	60bc      	str	r4, [r7, #8]
     90c:	60fc      	str	r4, [r7, #12]
     90e:	613c      	str	r4, [r7, #16]
     910:	61bc      	str	r4, [r7, #24]
     912:	617c      	str	r4, [r7, #20]
     914:	83bc      	strh	r4, [r7, #28]
     916:	77dc      	strb	r4, [r3, #31]
     918:	1cbb      	adds	r3, r7, #2
     91a:	77dc      	strb	r4, [r3, #31]
     91c:	1cfb      	adds	r3, r7, #3
     91e:	77dc      	strb	r4, [r3, #31]
     920:	1d3b      	adds	r3, r7, #4
     922:	77dc      	strb	r4, [r3, #31]
     924:	6838      	ldr	r0, [r7, #0]
     926:	4b12      	ldr	r3, [pc, #72]	; (970 <usart_init+0x1d4>)
     928:	4798      	blx	r3
     92a:	0005      	movs	r5, r0
     92c:	4b1b      	ldr	r3, [pc, #108]	; (99c <usart_init+0x200>)
     92e:	491c      	ldr	r1, [pc, #112]	; (9a0 <usart_init+0x204>)
     930:	4798      	blx	r3
     932:	0020      	movs	r0, r4
     934:	4b1b      	ldr	r3, [pc, #108]	; (9a4 <usart_init+0x208>)
     936:	00ad      	lsls	r5, r5, #2
     938:	50ef      	str	r7, [r5, r3]
     93a:	b00f      	add	sp, #60	; 0x3c
     93c:	bdf0      	pop	{r4, r5, r6, r7, pc}
     93e:	7df3      	ldrb	r3, [r6, #23]
     940:	2b00      	cmp	r3, #0
     942:	d008      	beq.n	956 <usart_init+0x1ba>
     944:	2310      	movs	r3, #16
     946:	0022      	movs	r2, r4
     948:	9300      	str	r3, [sp, #0]
     94a:	002b      	movs	r3, r5
     94c:	69b1      	ldr	r1, [r6, #24]
     94e:	6930      	ldr	r0, [r6, #16]
     950:	4c15      	ldr	r4, [pc, #84]	; (9a8 <usart_init+0x20c>)
     952:	47a0      	blx	r4
     954:	e778      	b.n	848 <usart_init+0xac>
     956:	6933      	ldr	r3, [r6, #16]
     958:	b2c0      	uxtb	r0, r0
     95a:	9307      	str	r3, [sp, #28]
     95c:	4b09      	ldr	r3, [pc, #36]	; (984 <usart_init+0x1e8>)
     95e:	4798      	blx	r3
     960:	2310      	movs	r3, #16
     962:	0001      	movs	r1, r0
     964:	9300      	str	r3, [sp, #0]
     966:	0022      	movs	r2, r4
     968:	002b      	movs	r3, r5
     96a:	9807      	ldr	r0, [sp, #28]
     96c:	e7f0      	b.n	950 <usart_init+0x1b4>
     96e:	46c0      	nop			; (mov r8, r8)
     970:	0000062d 	.word	0x0000062d
     974:	40000400 	.word	0x40000400
     978:	000012b1 	.word	0x000012b1
     97c:	00001229 	.word	0x00001229
     980:	0000048d 	.word	0x0000048d
     984:	000012fd 	.word	0x000012fd
     988:	000003cd 	.word	0x000003cd
     98c:	00000791 	.word	0x00000791
     990:	41002000 	.word	0x41002000
     994:	000004d1 	.word	0x000004d1
     998:	000013b5 	.word	0x000013b5
     99c:	00000bf1 	.word	0x00000bf1
     9a0:	00000add 	.word	0x00000add
     9a4:	20000384 	.word	0x20000384
     9a8:	000003f5 	.word	0x000003f5

000009ac <usart_write_wait>:
     9ac:	b570      	push	{r4, r5, r6, lr}
     9ae:	79c2      	ldrb	r2, [r0, #7]
     9b0:	000d      	movs	r5, r1
     9b2:	231c      	movs	r3, #28
     9b4:	2a00      	cmp	r2, #0
     9b6:	d00c      	beq.n	9d2 <usart_write_wait+0x26>
     9b8:	8bc2      	ldrh	r2, [r0, #30]
     9ba:	3b17      	subs	r3, #23
     9bc:	2a00      	cmp	r2, #0
     9be:	d108      	bne.n	9d2 <usart_write_wait+0x26>
     9c0:	4b05      	ldr	r3, [pc, #20]	; (9d8 <usart_write_wait+0x2c>)
     9c2:	6804      	ldr	r4, [r0, #0]
     9c4:	4798      	blx	r3
     9c6:	2302      	movs	r3, #2
     9c8:	8325      	strh	r5, [r4, #24]
     9ca:	7ba2      	ldrb	r2, [r4, #14]
     9cc:	421a      	tst	r2, r3
     9ce:	d0fc      	beq.n	9ca <usart_write_wait+0x1e>
     9d0:	2300      	movs	r3, #0
     9d2:	0018      	movs	r0, r3
     9d4:	bd70      	pop	{r4, r5, r6, pc}
     9d6:	46c0      	nop			; (mov r8, r8)
     9d8:	00000791 	.word	0x00000791

000009dc <usart_write_buffer_wait>:
     9dc:	b5f7      	push	{r0, r1, r2, r4, r5, r6, r7, lr}
     9de:	0006      	movs	r6, r0
     9e0:	000f      	movs	r7, r1
     9e2:	0015      	movs	r5, r2
     9e4:	2017      	movs	r0, #23
     9e6:	2a00      	cmp	r2, #0
     9e8:	d027      	beq.n	a3a <usart_write_buffer_wait+0x5e>
     9ea:	79f3      	ldrb	r3, [r6, #7]
     9ec:	3005      	adds	r0, #5
     9ee:	2b00      	cmp	r3, #0
     9f0:	d023      	beq.n	a3a <usart_write_buffer_wait+0x5e>
     9f2:	6833      	ldr	r3, [r6, #0]
     9f4:	0030      	movs	r0, r6
     9f6:	9301      	str	r3, [sp, #4]
     9f8:	4b18      	ldr	r3, [pc, #96]	; (a5c <usart_write_buffer_wait+0x80>)
     9fa:	4798      	blx	r3
     9fc:	2400      	movs	r4, #0
     9fe:	2380      	movs	r3, #128	; 0x80
     a00:	025b      	lsls	r3, r3, #9
     a02:	2101      	movs	r1, #1
     a04:	9a01      	ldr	r2, [sp, #4]
     a06:	7b92      	ldrb	r2, [r2, #14]
     a08:	420a      	tst	r2, r1
     a0a:	d017      	beq.n	a3c <usart_write_buffer_wait+0x60>
     a0c:	7972      	ldrb	r2, [r6, #5]
     a0e:	1863      	adds	r3, r4, r1
     a10:	b29b      	uxth	r3, r3
     a12:	5d39      	ldrb	r1, [r7, r4]
     a14:	2a01      	cmp	r2, #1
     a16:	d016      	beq.n	a46 <usart_write_buffer_wait+0x6a>
     a18:	001c      	movs	r4, r3
     a1a:	b289      	uxth	r1, r1
     a1c:	3d01      	subs	r5, #1
     a1e:	0030      	movs	r0, r6
     a20:	4b0f      	ldr	r3, [pc, #60]	; (a60 <usart_write_buffer_wait+0x84>)
     a22:	b2ad      	uxth	r5, r5
     a24:	4798      	blx	r3
     a26:	2d00      	cmp	r5, #0
     a28:	d1e9      	bne.n	9fe <usart_write_buffer_wait+0x22>
     a2a:	2380      	movs	r3, #128	; 0x80
     a2c:	2202      	movs	r2, #2
     a2e:	025b      	lsls	r3, r3, #9
     a30:	9901      	ldr	r1, [sp, #4]
     a32:	7b89      	ldrb	r1, [r1, #14]
     a34:	4211      	tst	r1, r2
     a36:	d00c      	beq.n	a52 <usart_write_buffer_wait+0x76>
     a38:	2000      	movs	r0, #0
     a3a:	bdfe      	pop	{r1, r2, r3, r4, r5, r6, r7, pc}
     a3c:	3b01      	subs	r3, #1
     a3e:	2b00      	cmp	r3, #0
     a40:	d1df      	bne.n	a02 <usart_write_buffer_wait+0x26>
     a42:	2012      	movs	r0, #18
     a44:	e7f9      	b.n	a3a <usart_write_buffer_wait+0x5e>
     a46:	5cfb      	ldrb	r3, [r7, r3]
     a48:	3402      	adds	r4, #2
     a4a:	021b      	lsls	r3, r3, #8
     a4c:	b2a4      	uxth	r4, r4
     a4e:	4319      	orrs	r1, r3
     a50:	e7e4      	b.n	a1c <usart_write_buffer_wait+0x40>
     a52:	3b01      	subs	r3, #1
     a54:	2b00      	cmp	r3, #0
     a56:	d1eb      	bne.n	a30 <usart_write_buffer_wait+0x54>
     a58:	e7f3      	b.n	a42 <usart_write_buffer_wait+0x66>
     a5a:	46c0      	nop			; (mov r8, r8)
     a5c:	00000791 	.word	0x00000791
     a60:	000009ad 	.word	0x000009ad

00000a64 <_usart_read_buffer>:
     a64:	b5f7      	push	{r0, r1, r2, r4, r5, r6, r7, lr}
     a66:	0005      	movs	r5, r0
     a68:	6803      	ldr	r3, [r0, #0]
     a6a:	000e      	movs	r6, r1
     a6c:	9301      	str	r3, [sp, #4]
     a6e:	4b0b      	ldr	r3, [pc, #44]	; (a9c <_usart_read_buffer+0x38>)
     a70:	0017      	movs	r7, r2
     a72:	4798      	blx	r3
     a74:	8bac      	ldrh	r4, [r5, #28]
     a76:	4b0a      	ldr	r3, [pc, #40]	; (aa0 <_usart_read_buffer+0x3c>)
     a78:	b2a4      	uxth	r4, r4
     a7a:	2c00      	cmp	r4, #0
     a7c:	d002      	beq.n	a84 <_usart_read_buffer+0x20>
     a7e:	4798      	blx	r3
     a80:	2005      	movs	r0, #5
     a82:	bdfe      	pop	{r1, r2, r3, r4, r5, r6, r7, pc}
     a84:	83af      	strh	r7, [r5, #28]
     a86:	4798      	blx	r3
     a88:	2305      	movs	r3, #5
     a8a:	616e      	str	r6, [r5, #20]
     a8c:	9a01      	ldr	r2, [sp, #4]
     a8e:	3503      	adds	r5, #3
     a90:	77eb      	strb	r3, [r5, #31]
     a92:	3b01      	subs	r3, #1
     a94:	7353      	strb	r3, [r2, #13]
     a96:	0020      	movs	r0, r4
     a98:	e7f3      	b.n	a82 <_usart_read_buffer+0x1e>
     a9a:	46c0      	nop			; (mov r8, r8)
     a9c:	00000e69 	.word	0x00000e69
     aa0:	00000e9d 	.word	0x00000e9d

00000aa4 <usart_register_callback>:
     aa4:	1c93      	adds	r3, r2, #2
     aa6:	009b      	lsls	r3, r3, #2
     aa8:	5019      	str	r1, [r3, r0]
     aaa:	2301      	movs	r3, #1
     aac:	4093      	lsls	r3, r2
     aae:	001a      	movs	r2, r3
     ab0:	3001      	adds	r0, #1
     ab2:	7fc3      	ldrb	r3, [r0, #31]
     ab4:	4313      	orrs	r3, r2
     ab6:	77c3      	strb	r3, [r0, #31]
     ab8:	4770      	bx	lr
	...

00000abc <usart_read_buffer_job>:
     abc:	b510      	push	{r4, lr}
     abe:	2317      	movs	r3, #23
     ac0:	2a00      	cmp	r2, #0
     ac2:	d006      	beq.n	ad2 <usart_read_buffer_job+0x16>
     ac4:	7984      	ldrb	r4, [r0, #6]
     ac6:	3305      	adds	r3, #5
     ac8:	2c00      	cmp	r4, #0
     aca:	d002      	beq.n	ad2 <usart_read_buffer_job+0x16>
     acc:	4b02      	ldr	r3, [pc, #8]	; (ad8 <usart_read_buffer_job+0x1c>)
     ace:	4798      	blx	r3
     ad0:	0003      	movs	r3, r0
     ad2:	0018      	movs	r0, r3
     ad4:	bd10      	pop	{r4, pc}
     ad6:	46c0      	nop			; (mov r8, r8)
     ad8:	00000a65 	.word	0x00000a65

00000adc <_usart_interrupt_handler>:
     adc:	b5f8      	push	{r3, r4, r5, r6, r7, lr}
     ade:	4b42      	ldr	r3, [pc, #264]	; (be8 <_usart_interrupt_handler+0x10c>)
     ae0:	0080      	lsls	r0, r0, #2
     ae2:	58c4      	ldr	r4, [r0, r3]
     ae4:	6825      	ldr	r5, [r4, #0]
     ae6:	8a2b      	ldrh	r3, [r5, #16]
     ae8:	b21b      	sxth	r3, r3
     aea:	2b00      	cmp	r3, #0
     aec:	dbfb      	blt.n	ae6 <_usart_interrupt_handler+0xa>
     aee:	7bab      	ldrb	r3, [r5, #14]
     af0:	7b6f      	ldrb	r7, [r5, #13]
     af2:	1c62      	adds	r2, r4, #1
     af4:	401f      	ands	r7, r3
     af6:	1ca3      	adds	r3, r4, #2
     af8:	7fde      	ldrb	r6, [r3, #31]
     afa:	2301      	movs	r3, #1
     afc:	7fd2      	ldrb	r2, [r2, #31]
     afe:	4016      	ands	r6, r2
     b00:	421f      	tst	r7, r3
     b02:	d018      	beq.n	b36 <_usart_interrupt_handler+0x5a>
     b04:	8be2      	ldrh	r2, [r4, #30]
     b06:	2a00      	cmp	r2, #0
     b08:	d03e      	beq.n	b88 <_usart_interrupt_handler+0xac>
     b0a:	69a2      	ldr	r2, [r4, #24]
     b0c:	1c51      	adds	r1, r2, #1
     b0e:	7813      	ldrb	r3, [r2, #0]
     b10:	61a1      	str	r1, [r4, #24]
     b12:	7961      	ldrb	r1, [r4, #5]
     b14:	b2db      	uxtb	r3, r3
     b16:	2901      	cmp	r1, #1
     b18:	d030      	beq.n	b7c <_usart_interrupt_handler+0xa0>
     b1a:	b29b      	uxth	r3, r3
     b1c:	05db      	lsls	r3, r3, #23
     b1e:	0ddb      	lsrs	r3, r3, #23
     b20:	832b      	strh	r3, [r5, #24]
     b22:	8be3      	ldrh	r3, [r4, #30]
     b24:	3b01      	subs	r3, #1
     b26:	b29b      	uxth	r3, r3
     b28:	83e3      	strh	r3, [r4, #30]
     b2a:	2b00      	cmp	r3, #0
     b2c:	d103      	bne.n	b36 <_usart_interrupt_handler+0x5a>
     b2e:	3301      	adds	r3, #1
     b30:	732b      	strb	r3, [r5, #12]
     b32:	3301      	adds	r3, #1
     b34:	736b      	strb	r3, [r5, #13]
     b36:	2302      	movs	r3, #2
     b38:	421f      	tst	r7, r3
     b3a:	d008      	beq.n	b4e <_usart_interrupt_handler+0x72>
     b3c:	2200      	movs	r2, #0
     b3e:	732b      	strb	r3, [r5, #12]
     b40:	1d23      	adds	r3, r4, #4
     b42:	77da      	strb	r2, [r3, #31]
     b44:	07f3      	lsls	r3, r6, #31
     b46:	d502      	bpl.n	b4e <_usart_interrupt_handler+0x72>
     b48:	0020      	movs	r0, r4
     b4a:	68a3      	ldr	r3, [r4, #8]
     b4c:	4798      	blx	r3
     b4e:	2204      	movs	r2, #4
     b50:	4217      	tst	r7, r2
     b52:	d012      	beq.n	b7a <_usart_interrupt_handler+0x9e>
     b54:	8ba3      	ldrh	r3, [r4, #28]
     b56:	2b00      	cmp	r3, #0
     b58:	d044      	beq.n	be4 <_usart_interrupt_handler+0x108>
     b5a:	8a2b      	ldrh	r3, [r5, #16]
     b5c:	b2db      	uxtb	r3, r3
     b5e:	0759      	lsls	r1, r3, #29
     b60:	d021      	beq.n	ba6 <_usart_interrupt_handler+0xca>
     b62:	2102      	movs	r1, #2
     b64:	420b      	tst	r3, r1
     b66:	d011      	beq.n	b8c <_usart_interrupt_handler+0xb0>
     b68:	1ce3      	adds	r3, r4, #3
     b6a:	3216      	adds	r2, #22
     b6c:	77da      	strb	r2, [r3, #31]
     b6e:	8229      	strh	r1, [r5, #16]
     b70:	0773      	lsls	r3, r6, #29
     b72:	d502      	bpl.n	b7a <_usart_interrupt_handler+0x9e>
     b74:	6923      	ldr	r3, [r4, #16]
     b76:	0020      	movs	r0, r4
     b78:	4798      	blx	r3
     b7a:	bdf8      	pop	{r3, r4, r5, r6, r7, pc}
     b7c:	7851      	ldrb	r1, [r2, #1]
     b7e:	3202      	adds	r2, #2
     b80:	0209      	lsls	r1, r1, #8
     b82:	430b      	orrs	r3, r1
     b84:	61a2      	str	r2, [r4, #24]
     b86:	e7c9      	b.n	b1c <_usart_interrupt_handler+0x40>
     b88:	732b      	strb	r3, [r5, #12]
     b8a:	e7d4      	b.n	b36 <_usart_interrupt_handler+0x5a>
     b8c:	4213      	tst	r3, r2
     b8e:	d004      	beq.n	b9a <_usart_interrupt_handler+0xbe>
     b90:	211e      	movs	r1, #30
     b92:	1ce3      	adds	r3, r4, #3
     b94:	77d9      	strb	r1, [r3, #31]
     b96:	822a      	strh	r2, [r5, #16]
     b98:	e7ea      	b.n	b70 <_usart_interrupt_handler+0x94>
     b9a:	2201      	movs	r2, #1
     b9c:	4213      	tst	r3, r2
     b9e:	d0e7      	beq.n	b70 <_usart_interrupt_handler+0x94>
     ba0:	1ce3      	adds	r3, r4, #3
     ba2:	2113      	movs	r1, #19
     ba4:	e7f6      	b.n	b94 <_usart_interrupt_handler+0xb8>
     ba6:	8b2b      	ldrh	r3, [r5, #24]
     ba8:	6961      	ldr	r1, [r4, #20]
     baa:	05db      	lsls	r3, r3, #23
     bac:	0ddb      	lsrs	r3, r3, #23
     bae:	b2da      	uxtb	r2, r3
     bb0:	700a      	strb	r2, [r1, #0]
     bb2:	6962      	ldr	r2, [r4, #20]
     bb4:	1c51      	adds	r1, r2, #1
     bb6:	6161      	str	r1, [r4, #20]
     bb8:	7961      	ldrb	r1, [r4, #5]
     bba:	2901      	cmp	r1, #1
     bbc:	d104      	bne.n	bc8 <_usart_interrupt_handler+0xec>
     bbe:	0a1b      	lsrs	r3, r3, #8
     bc0:	7053      	strb	r3, [r2, #1]
     bc2:	6963      	ldr	r3, [r4, #20]
     bc4:	3301      	adds	r3, #1
     bc6:	6163      	str	r3, [r4, #20]
     bc8:	8ba3      	ldrh	r3, [r4, #28]
     bca:	3b01      	subs	r3, #1
     bcc:	b29b      	uxth	r3, r3
     bce:	83a3      	strh	r3, [r4, #28]
     bd0:	2b00      	cmp	r3, #0
     bd2:	d1d2      	bne.n	b7a <_usart_interrupt_handler+0x9e>
     bd4:	2204      	movs	r2, #4
     bd6:	732a      	strb	r2, [r5, #12]
     bd8:	1ce2      	adds	r2, r4, #3
     bda:	77d3      	strb	r3, [r2, #31]
     bdc:	07b3      	lsls	r3, r6, #30
     bde:	d5cc      	bpl.n	b7a <_usart_interrupt_handler+0x9e>
     be0:	68e3      	ldr	r3, [r4, #12]
     be2:	e7c8      	b.n	b76 <_usart_interrupt_handler+0x9a>
     be4:	732a      	strb	r2, [r5, #12]
     be6:	e7c8      	b.n	b7a <_usart_interrupt_handler+0x9e>
     be8:	20000384 	.word	0x20000384

00000bec <_sercom_default_handler>:
     bec:	4770      	bx	lr
	...

00000bf0 <_sercom_set_handler>:
     bf0:	b5f0      	push	{r4, r5, r6, r7, lr}
     bf2:	4c09      	ldr	r4, [pc, #36]	; (c18 <_sercom_set_handler+0x28>)
     bf4:	4a09      	ldr	r2, [pc, #36]	; (c1c <_sercom_set_handler+0x2c>)
     bf6:	7823      	ldrb	r3, [r4, #0]
     bf8:	2b00      	cmp	r3, #0
     bfa:	d109      	bne.n	c10 <_sercom_set_handler+0x20>
     bfc:	001e      	movs	r6, r3
     bfe:	4f08      	ldr	r7, [pc, #32]	; (c20 <_sercom_set_handler+0x30>)
     c00:	4d08      	ldr	r5, [pc, #32]	; (c24 <_sercom_set_handler+0x34>)
     c02:	50d7      	str	r7, [r2, r3]
     c04:	50ee      	str	r6, [r5, r3]
     c06:	3304      	adds	r3, #4
     c08:	2b18      	cmp	r3, #24
     c0a:	d1fa      	bne.n	c02 <_sercom_set_handler+0x12>
     c0c:	3b17      	subs	r3, #23
     c0e:	7023      	strb	r3, [r4, #0]
     c10:	0080      	lsls	r0, r0, #2
     c12:	5011      	str	r1, [r2, r0]
     c14:	bdf0      	pop	{r4, r5, r6, r7, pc}
     c16:	46c0      	nop			; (mov r8, r8)
     c18:	2000004e 	.word	0x2000004e
     c1c:	20000050 	.word	0x20000050
     c20:	00000bed 	.word	0x00000bed
     c24:	20000384 	.word	0x20000384

00000c28 <_sercom_get_interrupt_vector>:
     c28:	b507      	push	{r0, r1, r2, lr}
     c2a:	2307      	movs	r3, #7
     c2c:	466a      	mov	r2, sp
     c2e:	7013      	strb	r3, [r2, #0]
     c30:	3301      	adds	r3, #1
     c32:	7053      	strb	r3, [r2, #1]
     c34:	3301      	adds	r3, #1
     c36:	7093      	strb	r3, [r2, #2]
     c38:	3301      	adds	r3, #1
     c3a:	70d3      	strb	r3, [r2, #3]
     c3c:	3301      	adds	r3, #1
     c3e:	7113      	strb	r3, [r2, #4]
     c40:	3301      	adds	r3, #1
     c42:	7153      	strb	r3, [r2, #5]
     c44:	4b02      	ldr	r3, [pc, #8]	; (c50 <_sercom_get_interrupt_vector+0x28>)
     c46:	4798      	blx	r3
     c48:	466b      	mov	r3, sp
     c4a:	5618      	ldrsb	r0, [r3, r0]
     c4c:	bd0e      	pop	{r1, r2, r3, pc}
     c4e:	46c0      	nop			; (mov r8, r8)
     c50:	0000062d 	.word	0x0000062d

00000c54 <SERCOM0_Handler>:
     c54:	b510      	push	{r4, lr}
     c56:	4b02      	ldr	r3, [pc, #8]	; (c60 <SERCOM0_Handler+0xc>)
     c58:	2000      	movs	r0, #0
     c5a:	681b      	ldr	r3, [r3, #0]
     c5c:	4798      	blx	r3
     c5e:	bd10      	pop	{r4, pc}
     c60:	20000050 	.word	0x20000050

00000c64 <SERCOM1_Handler>:
     c64:	b510      	push	{r4, lr}
     c66:	4b02      	ldr	r3, [pc, #8]	; (c70 <SERCOM1_Handler+0xc>)
     c68:	2001      	movs	r0, #1
     c6a:	685b      	ldr	r3, [r3, #4]
     c6c:	4798      	blx	r3
     c6e:	bd10      	pop	{r4, pc}
     c70:	20000050 	.word	0x20000050

00000c74 <SERCOM2_Handler>:
     c74:	b510      	push	{r4, lr}
     c76:	4b02      	ldr	r3, [pc, #8]	; (c80 <SERCOM2_Handler+0xc>)
     c78:	2002      	movs	r0, #2
     c7a:	689b      	ldr	r3, [r3, #8]
     c7c:	4798      	blx	r3
     c7e:	bd10      	pop	{r4, pc}
     c80:	20000050 	.word	0x20000050

00000c84 <SERCOM3_Handler>:
     c84:	b510      	push	{r4, lr}
     c86:	4b02      	ldr	r3, [pc, #8]	; (c90 <SERCOM3_Handler+0xc>)
     c88:	2003      	movs	r0, #3
     c8a:	68db      	ldr	r3, [r3, #12]
     c8c:	4798      	blx	r3
     c8e:	bd10      	pop	{r4, pc}
     c90:	20000050 	.word	0x20000050

00000c94 <SERCOM4_Handler>:
     c94:	b510      	push	{r4, lr}
     c96:	4b02      	ldr	r3, [pc, #8]	; (ca0 <SERCOM4_Handler+0xc>)
     c98:	2004      	movs	r0, #4
     c9a:	691b      	ldr	r3, [r3, #16]
     c9c:	4798      	blx	r3
     c9e:	bd10      	pop	{r4, pc}
     ca0:	20000050 	.word	0x20000050

00000ca4 <SERCOM5_Handler>:
     ca4:	b510      	push	{r4, lr}
     ca6:	4b02      	ldr	r3, [pc, #8]	; (cb0 <SERCOM5_Handler+0xc>)
     ca8:	2005      	movs	r0, #5
     caa:	695b      	ldr	r3, [r3, #20]
     cac:	4798      	blx	r3
     cae:	bd10      	pop	{r4, pc}
     cb0:	20000050 	.word	0x20000050

00000cb4 <watchdog_early_warning_callback>:
     cb4:	2280      	movs	r2, #128	; 0x80
     cb6:	4b02      	ldr	r3, [pc, #8]	; (cc0 <watchdog_early_warning_callback+0xc>)
     cb8:	0112      	lsls	r2, r2, #4
     cba:	619a      	str	r2, [r3, #24]
     cbc:	4770      	bx	lr
     cbe:	46c0      	nop			; (mov r8, r8)
     cc0:	41004400 	.word	0x41004400

00000cc4 <SysTick_Handler>:
     cc4:	4770      	bx	lr
	...

00000cc8 <config_GPIO>:
     cc8:	b5f7      	push	{r0, r1, r2, r4, r5, r6, r7, lr}
     cca:	2600      	movs	r6, #0
     ccc:	2702      	movs	r7, #2
     cce:	ac01      	add	r4, sp, #4
     cd0:	4d07      	ldr	r5, [pc, #28]	; (cf0 <config_GPIO+0x28>)
     cd2:	0021      	movs	r1, r4
     cd4:	2013      	movs	r0, #19
     cd6:	7026      	strb	r6, [r4, #0]
     cd8:	70a6      	strb	r6, [r4, #2]
     cda:	7067      	strb	r7, [r4, #1]
     cdc:	47a8      	blx	r5
     cde:	0021      	movs	r1, r4
     ce0:	2012      	movs	r0, #18
     ce2:	47a8      	blx	r5
     ce4:	0021      	movs	r1, r4
     ce6:	2029      	movs	r0, #41	; 0x29
     ce8:	7026      	strb	r6, [r4, #0]
     cea:	7067      	strb	r7, [r4, #1]
     cec:	47a8      	blx	r5
     cee:	bdf7      	pop	{r0, r1, r2, r4, r5, r6, r7, pc}
     cf0:	00000e45 	.word	0x00000e45

00000cf4 <config_GCLK>:
     cf4:	b51f      	push	{r0, r1, r2, r3, r4, lr}
     cf6:	2300      	movs	r3, #0
     cf8:	a901      	add	r1, sp, #4
     cfa:	704b      	strb	r3, [r1, #1]
     cfc:	720b      	strb	r3, [r1, #8]
     cfe:	724b      	strb	r3, [r1, #9]
     d00:	3303      	adds	r3, #3
     d02:	700b      	strb	r3, [r1, #0]
     d04:	3305      	adds	r3, #5
     d06:	604b      	str	r3, [r1, #4]
     d08:	2001      	movs	r0, #1
     d0a:	4b03      	ldr	r3, [pc, #12]	; (d18 <config_GCLK+0x24>)
     d0c:	4798      	blx	r3
     d0e:	2001      	movs	r0, #1
     d10:	4b02      	ldr	r3, [pc, #8]	; (d1c <config_GCLK+0x28>)
     d12:	4798      	blx	r3
     d14:	b005      	add	sp, #20
     d16:	bd00      	pop	{pc}
     d18:	000010bd 	.word	0x000010bd
     d1c:	00001161 	.word	0x00001161

00000d20 <config_WDT>:
     d20:	b507      	push	{r0, r1, r2, lr}
     d22:	2200      	movs	r2, #0
     d24:	466b      	mov	r3, sp
     d26:	4669      	mov	r1, sp
     d28:	701a      	strb	r2, [r3, #0]
     d2a:	2301      	movs	r3, #1
     d2c:	4668      	mov	r0, sp
     d2e:	704b      	strb	r3, [r1, #1]
     d30:	210c      	movs	r1, #12
     d32:	7083      	strb	r3, [r0, #2]
     d34:	330a      	adds	r3, #10
     d36:	7143      	strb	r3, [r0, #5]
     d38:	4b02      	ldr	r3, [pc, #8]	; (d44 <config_WDT+0x24>)
     d3a:	70c1      	strb	r1, [r0, #3]
     d3c:	7102      	strb	r2, [r0, #4]
     d3e:	4798      	blx	r3
     d40:	bd07      	pop	{r0, r1, r2, pc}
     d42:	46c0      	nop			; (mov r8, r8)
     d44:	00000105 	.word	0x00000105

00000d48 <config_WDT_Callback>:
     d48:	b510      	push	{r4, lr}
     d4a:	2100      	movs	r1, #0
     d4c:	4b03      	ldr	r3, [pc, #12]	; (d5c <config_WDT_Callback+0x14>)
     d4e:	4804      	ldr	r0, [pc, #16]	; (d60 <config_WDT_Callback+0x18>)
     d50:	4798      	blx	r3
     d52:	2000      	movs	r0, #0
     d54:	4b03      	ldr	r3, [pc, #12]	; (d64 <config_WDT_Callback+0x1c>)
     d56:	4798      	blx	r3
     d58:	bd10      	pop	{r4, pc}
     d5a:	46c0      	nop			; (mov r8, r8)
     d5c:	000001dd 	.word	0x000001dd
     d60:	00000cb5 	.word	0x00000cb5
     d64:	000001f1 	.word	0x000001f1

00000d68 <sys_config>:
     d68:	4b12      	ldr	r3, [pc, #72]	; (db4 <sys_config+0x4c>)
     d6a:	b510      	push	{r4, lr}
     d6c:	2000      	movs	r0, #0
     d6e:	4798      	blx	r3
     d70:	4b11      	ldr	r3, [pc, #68]	; (db8 <sys_config+0x50>)
     d72:	3801      	subs	r0, #1
     d74:	4298      	cmp	r0, r3
     d76:	d80d      	bhi.n	d94 <sys_config+0x2c>
     d78:	21c0      	movs	r1, #192	; 0xc0
     d7a:	4a10      	ldr	r2, [pc, #64]	; (dbc <sys_config+0x54>)
     d7c:	0609      	lsls	r1, r1, #24
     d7e:	6050      	str	r0, [r2, #4]
     d80:	480f      	ldr	r0, [pc, #60]	; (dc0 <sys_config+0x58>)
     d82:	6a03      	ldr	r3, [r0, #32]
     d84:	021b      	lsls	r3, r3, #8
     d86:	0a1b      	lsrs	r3, r3, #8
     d88:	430b      	orrs	r3, r1
     d8a:	6203      	str	r3, [r0, #32]
     d8c:	2300      	movs	r3, #0
     d8e:	6093      	str	r3, [r2, #8]
     d90:	3307      	adds	r3, #7
     d92:	6013      	str	r3, [r2, #0]
     d94:	4b0b      	ldr	r3, [pc, #44]	; (dc4 <sys_config+0x5c>)
     d96:	4798      	blx	r3
     d98:	4b0b      	ldr	r3, [pc, #44]	; (dc8 <sys_config+0x60>)
     d9a:	4798      	blx	r3
     d9c:	4b0b      	ldr	r3, [pc, #44]	; (dcc <sys_config+0x64>)
     d9e:	4798      	blx	r3
     da0:	4b0b      	ldr	r3, [pc, #44]	; (dd0 <sys_config+0x68>)
     da2:	4798      	blx	r3
     da4:	2201      	movs	r2, #1
     da6:	4b0b      	ldr	r3, [pc, #44]	; (dd4 <sys_config+0x6c>)
     da8:	701a      	strb	r2, [r3, #0]
     daa:	f3bf 8f5f 	dmb	sy
     dae:	b662      	cpsie	i
     db0:	bd10      	pop	{r4, pc}
     db2:	46c0      	nop			; (mov r8, r8)
     db4:	000011a1 	.word	0x000011a1
     db8:	00ffffff 	.word	0x00ffffff
     dbc:	e000e010 	.word	0xe000e010
     dc0:	e000ed00 	.word	0xe000ed00
     dc4:	00000dd9 	.word	0x00000dd9
     dc8:	00000cf5 	.word	0x00000cf5
     dcc:	00000d21 	.word	0x00000d21
     dd0:	00000d49 	.word	0x00000d49
     dd4:	2000001c 	.word	0x2000001c

00000dd8 <delay_init>:
     dd8:	b570      	push	{r4, r5, r6, lr}
     dda:	4b09      	ldr	r3, [pc, #36]	; (e00 <delay_init+0x28>)
     ddc:	2000      	movs	r0, #0
     dde:	4798      	blx	r3
     de0:	21fa      	movs	r1, #250	; 0xfa
     de2:	4c08      	ldr	r4, [pc, #32]	; (e04 <delay_init+0x2c>)
     de4:	0089      	lsls	r1, r1, #2
     de6:	0005      	movs	r5, r0
     de8:	47a0      	blx	r4
     dea:	4b07      	ldr	r3, [pc, #28]	; (e08 <delay_init+0x30>)
     dec:	4907      	ldr	r1, [pc, #28]	; (e0c <delay_init+0x34>)
     dee:	6018      	str	r0, [r3, #0]
     df0:	0028      	movs	r0, r5
     df2:	47a0      	blx	r4
     df4:	2205      	movs	r2, #5
     df6:	4b06      	ldr	r3, [pc, #24]	; (e10 <delay_init+0x38>)
     df8:	6018      	str	r0, [r3, #0]
     dfa:	4b06      	ldr	r3, [pc, #24]	; (e14 <delay_init+0x3c>)
     dfc:	601a      	str	r2, [r3, #0]
     dfe:	bd70      	pop	{r4, r5, r6, pc}
     e00:	000011a1 	.word	0x000011a1
     e04:	00001571 	.word	0x00001571
     e08:	20000014 	.word	0x20000014
     e0c:	000f4240 	.word	0x000f4240
     e10:	20000018 	.word	0x20000018
     e14:	e000e010 	.word	0xe000e010

00000e18 <delay_cycles_ms>:
     e18:	b530      	push	{r4, r5, lr}
     e1a:	2480      	movs	r4, #128	; 0x80
     e1c:	2100      	movs	r1, #0
     e1e:	4b07      	ldr	r3, [pc, #28]	; (e3c <delay_cycles_ms+0x24>)
     e20:	0264      	lsls	r4, r4, #9
     e22:	681a      	ldr	r2, [r3, #0]
     e24:	4b06      	ldr	r3, [pc, #24]	; (e40 <delay_cycles_ms+0x28>)
     e26:	3801      	subs	r0, #1
     e28:	d200      	bcs.n	e2c <delay_cycles_ms+0x14>
     e2a:	bd30      	pop	{r4, r5, pc}
     e2c:	2a00      	cmp	r2, #0
     e2e:	d0fa      	beq.n	e26 <delay_cycles_ms+0xe>
     e30:	605a      	str	r2, [r3, #4]
     e32:	6099      	str	r1, [r3, #8]
     e34:	681d      	ldr	r5, [r3, #0]
     e36:	4225      	tst	r5, r4
     e38:	d0fc      	beq.n	e34 <delay_cycles_ms+0x1c>
     e3a:	e7f4      	b.n	e26 <delay_cycles_ms+0xe>
     e3c:	20000014 	.word	0x20000014
     e40:	e000e010 	.word	0xe000e010

00000e44 <port_pin_set_config>:
     e44:	b507      	push	{r0, r1, r2, lr}
     e46:	2280      	movs	r2, #128	; 0x80
     e48:	ab01      	add	r3, sp, #4
     e4a:	701a      	strb	r2, [r3, #0]
     e4c:	780a      	ldrb	r2, [r1, #0]
     e4e:	705a      	strb	r2, [r3, #1]
     e50:	784a      	ldrb	r2, [r1, #1]
     e52:	709a      	strb	r2, [r3, #2]
     e54:	788a      	ldrb	r2, [r1, #2]
     e56:	0019      	movs	r1, r3
     e58:	70da      	strb	r2, [r3, #3]
     e5a:	4b01      	ldr	r3, [pc, #4]	; (e60 <port_pin_set_config+0x1c>)
     e5c:	4798      	blx	r3
     e5e:	bd07      	pop	{r0, r1, r2, pc}
     e60:	000013b5 	.word	0x000013b5

00000e64 <system_board_init>:
     e64:	4770      	bx	lr
	...

00000e68 <cpu_irq_enter_critical>:
     e68:	4b09      	ldr	r3, [pc, #36]	; (e90 <cpu_irq_enter_critical+0x28>)
     e6a:	6819      	ldr	r1, [r3, #0]
     e6c:	2900      	cmp	r1, #0
     e6e:	d10b      	bne.n	e88 <cpu_irq_enter_critical+0x20>
     e70:	f3ef 8010 	mrs	r0, PRIMASK
     e74:	4a07      	ldr	r2, [pc, #28]	; (e94 <cpu_irq_enter_critical+0x2c>)
     e76:	2800      	cmp	r0, #0
     e78:	d105      	bne.n	e86 <cpu_irq_enter_critical+0x1e>
     e7a:	b672      	cpsid	i
     e7c:	f3bf 8f5f 	dmb	sy
     e80:	4905      	ldr	r1, [pc, #20]	; (e98 <cpu_irq_enter_critical+0x30>)
     e82:	7008      	strb	r0, [r1, #0]
     e84:	2101      	movs	r1, #1
     e86:	7011      	strb	r1, [r2, #0]
     e88:	681a      	ldr	r2, [r3, #0]
     e8a:	3201      	adds	r2, #1
     e8c:	601a      	str	r2, [r3, #0]
     e8e:	4770      	bx	lr
     e90:	20000068 	.word	0x20000068
     e94:	2000006c 	.word	0x2000006c
     e98:	2000001c 	.word	0x2000001c

00000e9c <cpu_irq_leave_critical>:
     e9c:	4b08      	ldr	r3, [pc, #32]	; (ec0 <cpu_irq_leave_critical+0x24>)
     e9e:	681a      	ldr	r2, [r3, #0]
     ea0:	3a01      	subs	r2, #1
     ea2:	601a      	str	r2, [r3, #0]
     ea4:	681b      	ldr	r3, [r3, #0]
     ea6:	2b00      	cmp	r3, #0
     ea8:	d109      	bne.n	ebe <cpu_irq_leave_critical+0x22>
     eaa:	4b06      	ldr	r3, [pc, #24]	; (ec4 <cpu_irq_leave_critical+0x28>)
     eac:	781b      	ldrb	r3, [r3, #0]
     eae:	2b00      	cmp	r3, #0
     eb0:	d005      	beq.n	ebe <cpu_irq_leave_critical+0x22>
     eb2:	2201      	movs	r2, #1
     eb4:	4b04      	ldr	r3, [pc, #16]	; (ec8 <cpu_irq_leave_critical+0x2c>)
     eb6:	701a      	strb	r2, [r3, #0]
     eb8:	f3bf 8f5f 	dmb	sy
     ebc:	b662      	cpsie	i
     ebe:	4770      	bx	lr
     ec0:	20000068 	.word	0x20000068
     ec4:	2000006c 	.word	0x2000006c
     ec8:	2000001c 	.word	0x2000001c

00000ecc <system_clock_source_get_hz>:
     ecc:	b510      	push	{r4, lr}
     ece:	2807      	cmp	r0, #7
     ed0:	d805      	bhi.n	ede <system_clock_source_get_hz+0x12>
     ed2:	f000 fb43 	bl	155c <__gnu_thumb1_case_uqi>
     ed6:	0406      	.short	0x0406
     ed8:	10272704 	.word	0x10272704
     edc:	1309      	.short	0x1309
     ede:	2000      	movs	r0, #0
     ee0:	bd10      	pop	{r4, pc}
     ee2:	4b13      	ldr	r3, [pc, #76]	; (f30 <system_clock_source_get_hz+0x64>)
     ee4:	68d8      	ldr	r0, [r3, #12]
     ee6:	e7fb      	b.n	ee0 <system_clock_source_get_hz+0x14>
     ee8:	4b12      	ldr	r3, [pc, #72]	; (f34 <system_clock_source_get_hz+0x68>)
     eea:	4813      	ldr	r0, [pc, #76]	; (f38 <system_clock_source_get_hz+0x6c>)
     eec:	6a1b      	ldr	r3, [r3, #32]
     eee:	059b      	lsls	r3, r3, #22
     ef0:	0f9b      	lsrs	r3, r3, #30
     ef2:	40d8      	lsrs	r0, r3
     ef4:	e7f4      	b.n	ee0 <system_clock_source_get_hz+0x14>
     ef6:	4b0e      	ldr	r3, [pc, #56]	; (f30 <system_clock_source_get_hz+0x64>)
     ef8:	6918      	ldr	r0, [r3, #16]
     efa:	e7f1      	b.n	ee0 <system_clock_source_get_hz+0x14>
     efc:	4c0c      	ldr	r4, [pc, #48]	; (f30 <system_clock_source_get_hz+0x64>)
     efe:	2000      	movs	r0, #0
     f00:	6823      	ldr	r3, [r4, #0]
     f02:	079b      	lsls	r3, r3, #30
     f04:	d5ec      	bpl.n	ee0 <system_clock_source_get_hz+0x14>
     f06:	2310      	movs	r3, #16
     f08:	490a      	ldr	r1, [pc, #40]	; (f34 <system_clock_source_get_hz+0x68>)
     f0a:	68ca      	ldr	r2, [r1, #12]
     f0c:	421a      	tst	r2, r3
     f0e:	d0fc      	beq.n	f0a <system_clock_source_get_hz+0x3e>
     f10:	6823      	ldr	r3, [r4, #0]
     f12:	075b      	lsls	r3, r3, #29
     f14:	d509      	bpl.n	f2a <system_clock_source_get_hz+0x5e>
     f16:	4b09      	ldr	r3, [pc, #36]	; (f3c <system_clock_source_get_hz+0x70>)
     f18:	2000      	movs	r0, #0
     f1a:	4798      	blx	r3
     f1c:	68a3      	ldr	r3, [r4, #8]
     f1e:	b29b      	uxth	r3, r3
     f20:	4358      	muls	r0, r3
     f22:	e7dd      	b.n	ee0 <system_clock_source_get_hz+0x14>
     f24:	2080      	movs	r0, #128	; 0x80
     f26:	0200      	lsls	r0, r0, #8
     f28:	e7da      	b.n	ee0 <system_clock_source_get_hz+0x14>
     f2a:	4805      	ldr	r0, [pc, #20]	; (f40 <system_clock_source_get_hz+0x74>)
     f2c:	e7d8      	b.n	ee0 <system_clock_source_get_hz+0x14>
     f2e:	46c0      	nop			; (mov r8, r8)
     f30:	20000070 	.word	0x20000070
     f34:	40000800 	.word	0x40000800
     f38:	007a1200 	.word	0x007a1200
     f3c:	000012fd 	.word	0x000012fd
     f40:	02dc6c00 	.word	0x02dc6c00

00000f44 <system_clock_source_osc8m_set_config>:
     f44:	b570      	push	{r4, r5, r6, lr}
     f46:	7884      	ldrb	r4, [r0, #2]
     f48:	7802      	ldrb	r2, [r0, #0]
     f4a:	7845      	ldrb	r5, [r0, #1]
     f4c:	2001      	movs	r0, #1
     f4e:	2640      	movs	r6, #64	; 0x40
     f50:	4005      	ands	r5, r0
     f52:	4020      	ands	r0, r4
     f54:	2480      	movs	r4, #128	; 0x80
     f56:	4908      	ldr	r1, [pc, #32]	; (f78 <system_clock_source_osc8m_set_config+0x34>)
     f58:	01ad      	lsls	r5, r5, #6
     f5a:	6a0b      	ldr	r3, [r1, #32]
     f5c:	01c0      	lsls	r0, r0, #7
     f5e:	43b3      	bics	r3, r6
     f60:	432b      	orrs	r3, r5
     f62:	43a3      	bics	r3, r4
     f64:	4303      	orrs	r3, r0
     f66:	2003      	movs	r0, #3
     f68:	4002      	ands	r2, r0
     f6a:	4804      	ldr	r0, [pc, #16]	; (f7c <system_clock_source_osc8m_set_config+0x38>)
     f6c:	0212      	lsls	r2, r2, #8
     f6e:	4003      	ands	r3, r0
     f70:	4313      	orrs	r3, r2
     f72:	620b      	str	r3, [r1, #32]
     f74:	bd70      	pop	{r4, r5, r6, pc}
     f76:	46c0      	nop			; (mov r8, r8)
     f78:	40000800 	.word	0x40000800
     f7c:	fffffcff 	.word	0xfffffcff

00000f80 <system_clock_source_enable>:
     f80:	b500      	push	{lr}
     f82:	2807      	cmp	r0, #7
     f84:	d805      	bhi.n	f92 <system_clock_source_enable+0x12>
     f86:	f000 fae9 	bl	155c <__gnu_thumb1_case_uqi>
     f8a:	0413      	.short	0x0413
     f8c:	190d0b04 	.word	0x190d0b04
     f90:	1f06      	.short	0x1f06
     f92:	2017      	movs	r0, #23
     f94:	bd00      	pop	{pc}
     f96:	2302      	movs	r3, #2
     f98:	4a17      	ldr	r2, [pc, #92]	; (ff8 <system_clock_source_enable+0x78>)
     f9a:	6a11      	ldr	r1, [r2, #32]
     f9c:	430b      	orrs	r3, r1
     f9e:	6213      	str	r3, [r2, #32]
     fa0:	2000      	movs	r0, #0
     fa2:	e7f7      	b.n	f94 <system_clock_source_enable+0x14>
     fa4:	2302      	movs	r3, #2
     fa6:	4a14      	ldr	r2, [pc, #80]	; (ff8 <system_clock_source_enable+0x78>)
     fa8:	6991      	ldr	r1, [r2, #24]
     faa:	430b      	orrs	r3, r1
     fac:	6193      	str	r3, [r2, #24]
     fae:	e7f7      	b.n	fa0 <system_clock_source_enable+0x20>
     fb0:	2302      	movs	r3, #2
     fb2:	4a11      	ldr	r2, [pc, #68]	; (ff8 <system_clock_source_enable+0x78>)
     fb4:	8a11      	ldrh	r1, [r2, #16]
     fb6:	430b      	orrs	r3, r1
     fb8:	8213      	strh	r3, [r2, #16]
     fba:	e7f1      	b.n	fa0 <system_clock_source_enable+0x20>
     fbc:	2302      	movs	r3, #2
     fbe:	4a0e      	ldr	r2, [pc, #56]	; (ff8 <system_clock_source_enable+0x78>)
     fc0:	8a91      	ldrh	r1, [r2, #20]
     fc2:	430b      	orrs	r3, r1
     fc4:	8293      	strh	r3, [r2, #20]
     fc6:	e7eb      	b.n	fa0 <system_clock_source_enable+0x20>
     fc8:	2302      	movs	r3, #2
     fca:	4a0c      	ldr	r2, [pc, #48]	; (ffc <system_clock_source_enable+0x7c>)
     fcc:	6811      	ldr	r1, [r2, #0]
     fce:	430b      	orrs	r3, r1
     fd0:	6013      	str	r3, [r2, #0]
     fd2:	2380      	movs	r3, #128	; 0x80
     fd4:	6811      	ldr	r1, [r2, #0]
     fd6:	4399      	bics	r1, r3
     fd8:	4b07      	ldr	r3, [pc, #28]	; (ff8 <system_clock_source_enable+0x78>)
     fda:	b289      	uxth	r1, r1
     fdc:	8499      	strh	r1, [r3, #36]	; 0x24
     fde:	2110      	movs	r1, #16
     fe0:	68d8      	ldr	r0, [r3, #12]
     fe2:	4208      	tst	r0, r1
     fe4:	d0fc      	beq.n	fe0 <system_clock_source_enable+0x60>
     fe6:	6891      	ldr	r1, [r2, #8]
     fe8:	62d9      	str	r1, [r3, #44]	; 0x2c
     fea:	6851      	ldr	r1, [r2, #4]
     fec:	6299      	str	r1, [r3, #40]	; 0x28
     fee:	6812      	ldr	r2, [r2, #0]
     ff0:	b292      	uxth	r2, r2
     ff2:	849a      	strh	r2, [r3, #36]	; 0x24
     ff4:	e7d4      	b.n	fa0 <system_clock_source_enable+0x20>
     ff6:	46c0      	nop			; (mov r8, r8)
     ff8:	40000800 	.word	0x40000800
     ffc:	20000070 	.word	0x20000070

00001000 <system_clock_init>:
    1000:	b57f      	push	{r0, r1, r2, r3, r4, r5, r6, lr}
    1002:	22c2      	movs	r2, #194	; 0xc2
    1004:	211e      	movs	r1, #30
    1006:	4b19      	ldr	r3, [pc, #100]	; (106c <system_clock_init+0x6c>)
    1008:	00d2      	lsls	r2, r2, #3
    100a:	609a      	str	r2, [r3, #8]
    100c:	4a18      	ldr	r2, [pc, #96]	; (1070 <system_clock_init+0x70>)
    100e:	2400      	movs	r4, #0
    1010:	6853      	ldr	r3, [r2, #4]
    1012:	ad01      	add	r5, sp, #4
    1014:	438b      	bics	r3, r1
    1016:	6053      	str	r3, [r2, #4]
    1018:	2301      	movs	r3, #1
    101a:	702b      	strb	r3, [r5, #0]
    101c:	b2e0      	uxtb	r0, r4
    101e:	0029      	movs	r1, r5
    1020:	4b14      	ldr	r3, [pc, #80]	; (1074 <system_clock_init+0x74>)
    1022:	3401      	adds	r4, #1
    1024:	4798      	blx	r3
    1026:	2c1c      	cmp	r4, #28
    1028:	d1f8      	bne.n	101c <system_clock_init+0x1c>
    102a:	2400      	movs	r4, #0
    102c:	466b      	mov	r3, sp
    102e:	2601      	movs	r6, #1
    1030:	705c      	strb	r4, [r3, #1]
    1032:	709e      	strb	r6, [r3, #2]
    1034:	701c      	strb	r4, [r3, #0]
    1036:	4668      	mov	r0, sp
    1038:	4b0f      	ldr	r3, [pc, #60]	; (1078 <system_clock_init+0x78>)
    103a:	4798      	blx	r3
    103c:	4b0f      	ldr	r3, [pc, #60]	; (107c <system_clock_init+0x7c>)
    103e:	2006      	movs	r0, #6
    1040:	4798      	blx	r3
    1042:	4b0f      	ldr	r3, [pc, #60]	; (1080 <system_clock_init+0x80>)
    1044:	4798      	blx	r3
    1046:	4b0f      	ldr	r3, [pc, #60]	; (1084 <system_clock_init+0x84>)
    1048:	0029      	movs	r1, r5
    104a:	721c      	strb	r4, [r3, #8]
    104c:	725c      	strb	r4, [r3, #9]
    104e:	729c      	strb	r4, [r3, #10]
    1050:	72dc      	strb	r4, [r3, #11]
    1052:	2306      	movs	r3, #6
    1054:	0020      	movs	r0, r4
    1056:	702b      	strb	r3, [r5, #0]
    1058:	4b0b      	ldr	r3, [pc, #44]	; (1088 <system_clock_init+0x88>)
    105a:	606e      	str	r6, [r5, #4]
    105c:	706c      	strb	r4, [r5, #1]
    105e:	722c      	strb	r4, [r5, #8]
    1060:	726c      	strb	r4, [r5, #9]
    1062:	4798      	blx	r3
    1064:	0020      	movs	r0, r4
    1066:	4b09      	ldr	r3, [pc, #36]	; (108c <system_clock_init+0x8c>)
    1068:	4798      	blx	r3
    106a:	bd7f      	pop	{r0, r1, r2, r3, r4, r5, r6, pc}
    106c:	40000800 	.word	0x40000800
    1070:	41004000 	.word	0x41004000
    1074:	000012b1 	.word	0x000012b1
    1078:	00000f45 	.word	0x00000f45
    107c:	00000f81 	.word	0x00000f81
    1080:	0000109d 	.word	0x0000109d
    1084:	40000400 	.word	0x40000400
    1088:	000010bd 	.word	0x000010bd
    108c:	00001161 	.word	0x00001161

00001090 <system_gclk_is_syncing>:
    1090:	4b01      	ldr	r3, [pc, #4]	; (1098 <system_gclk_is_syncing+0x8>)
    1092:	7858      	ldrb	r0, [r3, #1]
    1094:	09c0      	lsrs	r0, r0, #7
    1096:	4770      	bx	lr
    1098:	40000c00 	.word	0x40000c00

0000109c <system_gclk_init>:
    109c:	2308      	movs	r3, #8
    109e:	4a05      	ldr	r2, [pc, #20]	; (10b4 <system_gclk_init+0x18>)
    10a0:	6991      	ldr	r1, [r2, #24]
    10a2:	430b      	orrs	r3, r1
    10a4:	6193      	str	r3, [r2, #24]
    10a6:	2301      	movs	r3, #1
    10a8:	4a03      	ldr	r2, [pc, #12]	; (10b8 <system_gclk_init+0x1c>)
    10aa:	7013      	strb	r3, [r2, #0]
    10ac:	7811      	ldrb	r1, [r2, #0]
    10ae:	4219      	tst	r1, r3
    10b0:	d1fc      	bne.n	10ac <system_gclk_init+0x10>
    10b2:	4770      	bx	lr
    10b4:	40000400 	.word	0x40000400
    10b8:	40000c00 	.word	0x40000c00

000010bc <system_gclk_gen_set_config>:
    10bc:	b5f8      	push	{r3, r4, r5, r6, r7, lr}
    10be:	780c      	ldrb	r4, [r1, #0]
    10c0:	784b      	ldrb	r3, [r1, #1]
    10c2:	0224      	lsls	r4, r4, #8
    10c4:	0006      	movs	r6, r0
    10c6:	0005      	movs	r5, r0
    10c8:	4304      	orrs	r4, r0
    10ca:	2b00      	cmp	r3, #0
    10cc:	d002      	beq.n	10d4 <system_gclk_gen_set_config+0x18>
    10ce:	2380      	movs	r3, #128	; 0x80
    10d0:	02db      	lsls	r3, r3, #11
    10d2:	431c      	orrs	r4, r3
    10d4:	7a4b      	ldrb	r3, [r1, #9]
    10d6:	2b00      	cmp	r3, #0
    10d8:	d002      	beq.n	10e0 <system_gclk_gen_set_config+0x24>
    10da:	2380      	movs	r3, #128	; 0x80
    10dc:	031b      	lsls	r3, r3, #12
    10de:	431c      	orrs	r4, r3
    10e0:	684b      	ldr	r3, [r1, #4]
    10e2:	2b01      	cmp	r3, #1
    10e4:	d912      	bls.n	110c <system_gclk_gen_set_config+0x50>
    10e6:	1e5d      	subs	r5, r3, #1
    10e8:	401d      	ands	r5, r3
    10ea:	2202      	movs	r2, #2
    10ec:	2d00      	cmp	r5, #0
    10ee:	d006      	beq.n	10fe <system_gclk_gen_set_config+0x42>
    10f0:	021d      	lsls	r5, r3, #8
    10f2:	2380      	movs	r3, #128	; 0x80
    10f4:	4335      	orrs	r5, r6
    10f6:	029b      	lsls	r3, r3, #10
    10f8:	e007      	b.n	110a <system_gclk_gen_set_config+0x4e>
    10fa:	3501      	adds	r5, #1
    10fc:	0052      	lsls	r2, r2, #1
    10fe:	429a      	cmp	r2, r3
    1100:	d3fb      	bcc.n	10fa <system_gclk_gen_set_config+0x3e>
    1102:	2380      	movs	r3, #128	; 0x80
    1104:	022d      	lsls	r5, r5, #8
    1106:	4335      	orrs	r5, r6
    1108:	035b      	lsls	r3, r3, #13
    110a:	431c      	orrs	r4, r3
    110c:	7a0b      	ldrb	r3, [r1, #8]
    110e:	2b00      	cmp	r3, #0
    1110:	d002      	beq.n	1118 <system_gclk_gen_set_config+0x5c>
    1112:	2380      	movs	r3, #128	; 0x80
    1114:	039b      	lsls	r3, r3, #14
    1116:	431c      	orrs	r4, r3
    1118:	4f0c      	ldr	r7, [pc, #48]	; (114c <system_gclk_gen_set_config+0x90>)
    111a:	47b8      	blx	r7
    111c:	2800      	cmp	r0, #0
    111e:	d1fb      	bne.n	1118 <system_gclk_gen_set_config+0x5c>
    1120:	4b0b      	ldr	r3, [pc, #44]	; (1150 <system_gclk_gen_set_config+0x94>)
    1122:	4798      	blx	r3
    1124:	4b0b      	ldr	r3, [pc, #44]	; (1154 <system_gclk_gen_set_config+0x98>)
    1126:	701e      	strb	r6, [r3, #0]
    1128:	47b8      	blx	r7
    112a:	2800      	cmp	r0, #0
    112c:	d1fc      	bne.n	1128 <system_gclk_gen_set_config+0x6c>
    112e:	4b0a      	ldr	r3, [pc, #40]	; (1158 <system_gclk_gen_set_config+0x9c>)
    1130:	609d      	str	r5, [r3, #8]
    1132:	001d      	movs	r5, r3
    1134:	47b8      	blx	r7
    1136:	2800      	cmp	r0, #0
    1138:	d1fc      	bne.n	1134 <system_gclk_gen_set_config+0x78>
    113a:	2280      	movs	r2, #128	; 0x80
    113c:	686b      	ldr	r3, [r5, #4]
    113e:	0252      	lsls	r2, r2, #9
    1140:	4013      	ands	r3, r2
    1142:	431c      	orrs	r4, r3
    1144:	606c      	str	r4, [r5, #4]
    1146:	4b05      	ldr	r3, [pc, #20]	; (115c <system_gclk_gen_set_config+0xa0>)
    1148:	4798      	blx	r3
    114a:	bdf8      	pop	{r3, r4, r5, r6, r7, pc}
    114c:	00001091 	.word	0x00001091
    1150:	00000e69 	.word	0x00000e69
    1154:	40000c08 	.word	0x40000c08
    1158:	40000c00 	.word	0x40000c00
    115c:	00000e9d 	.word	0x00000e9d

00001160 <system_gclk_gen_enable>:
    1160:	b570      	push	{r4, r5, r6, lr}
    1162:	0005      	movs	r5, r0
    1164:	4c09      	ldr	r4, [pc, #36]	; (118c <system_gclk_gen_enable+0x2c>)
    1166:	47a0      	blx	r4
    1168:	2800      	cmp	r0, #0
    116a:	d1fb      	bne.n	1164 <system_gclk_gen_enable+0x4>
    116c:	4b08      	ldr	r3, [pc, #32]	; (1190 <system_gclk_gen_enable+0x30>)
    116e:	4798      	blx	r3
    1170:	4b08      	ldr	r3, [pc, #32]	; (1194 <system_gclk_gen_enable+0x34>)
    1172:	701d      	strb	r5, [r3, #0]
    1174:	47a0      	blx	r4
    1176:	2800      	cmp	r0, #0
    1178:	d1fc      	bne.n	1174 <system_gclk_gen_enable+0x14>
    117a:	2380      	movs	r3, #128	; 0x80
    117c:	4a06      	ldr	r2, [pc, #24]	; (1198 <system_gclk_gen_enable+0x38>)
    117e:	025b      	lsls	r3, r3, #9
    1180:	6851      	ldr	r1, [r2, #4]
    1182:	430b      	orrs	r3, r1
    1184:	6053      	str	r3, [r2, #4]
    1186:	4b05      	ldr	r3, [pc, #20]	; (119c <system_gclk_gen_enable+0x3c>)
    1188:	4798      	blx	r3
    118a:	bd70      	pop	{r4, r5, r6, pc}
    118c:	00001091 	.word	0x00001091
    1190:	00000e69 	.word	0x00000e69
    1194:	40000c04 	.word	0x40000c04
    1198:	40000c00 	.word	0x40000c00
    119c:	00000e9d 	.word	0x00000e9d

000011a0 <system_gclk_gen_get_hz>:
    11a0:	b5f7      	push	{r0, r1, r2, r4, r5, r6, r7, lr}
    11a2:	0007      	movs	r7, r0
    11a4:	4e18      	ldr	r6, [pc, #96]	; (1208 <system_gclk_gen_get_hz+0x68>)
    11a6:	47b0      	blx	r6
    11a8:	2800      	cmp	r0, #0
    11aa:	d1fb      	bne.n	11a4 <system_gclk_gen_get_hz+0x4>
    11ac:	4b17      	ldr	r3, [pc, #92]	; (120c <system_gclk_gen_get_hz+0x6c>)
    11ae:	4798      	blx	r3
    11b0:	4b17      	ldr	r3, [pc, #92]	; (1210 <system_gclk_gen_get_hz+0x70>)
    11b2:	701f      	strb	r7, [r3, #0]
    11b4:	9301      	str	r3, [sp, #4]
    11b6:	47b0      	blx	r6
    11b8:	2800      	cmp	r0, #0
    11ba:	d1fc      	bne.n	11b6 <system_gclk_gen_get_hz+0x16>
    11bc:	4d15      	ldr	r5, [pc, #84]	; (1214 <system_gclk_gen_get_hz+0x74>)
    11be:	4b16      	ldr	r3, [pc, #88]	; (1218 <system_gclk_gen_get_hz+0x78>)
    11c0:	6868      	ldr	r0, [r5, #4]
    11c2:	04c0      	lsls	r0, r0, #19
    11c4:	0ec0      	lsrs	r0, r0, #27
    11c6:	4798      	blx	r3
    11c8:	0004      	movs	r4, r0
    11ca:	9b01      	ldr	r3, [sp, #4]
    11cc:	701f      	strb	r7, [r3, #0]
    11ce:	686b      	ldr	r3, [r5, #4]
    11d0:	02db      	lsls	r3, r3, #11
    11d2:	0fdb      	lsrs	r3, r3, #31
    11d4:	9301      	str	r3, [sp, #4]
    11d6:	4b11      	ldr	r3, [pc, #68]	; (121c <system_gclk_gen_get_hz+0x7c>)
    11d8:	701f      	strb	r7, [r3, #0]
    11da:	47b0      	blx	r6
    11dc:	2800      	cmp	r0, #0
    11de:	d1fc      	bne.n	11da <system_gclk_gen_get_hz+0x3a>
    11e0:	68ad      	ldr	r5, [r5, #8]
    11e2:	4b0f      	ldr	r3, [pc, #60]	; (1220 <system_gclk_gen_get_hz+0x80>)
    11e4:	4798      	blx	r3
    11e6:	9b01      	ldr	r3, [sp, #4]
    11e8:	022d      	lsls	r5, r5, #8
    11ea:	0c2d      	lsrs	r5, r5, #16
    11ec:	2b00      	cmp	r3, #0
    11ee:	d108      	bne.n	1202 <system_gclk_gen_get_hz+0x62>
    11f0:	2d01      	cmp	r5, #1
    11f2:	d904      	bls.n	11fe <system_gclk_gen_get_hz+0x5e>
    11f4:	0020      	movs	r0, r4
    11f6:	0029      	movs	r1, r5
    11f8:	4b0a      	ldr	r3, [pc, #40]	; (1224 <system_gclk_gen_get_hz+0x84>)
    11fa:	4798      	blx	r3
    11fc:	0004      	movs	r4, r0
    11fe:	0020      	movs	r0, r4
    1200:	bdfe      	pop	{r1, r2, r3, r4, r5, r6, r7, pc}
    1202:	3501      	adds	r5, #1
    1204:	40ec      	lsrs	r4, r5
    1206:	e7fa      	b.n	11fe <system_gclk_gen_get_hz+0x5e>
    1208:	00001091 	.word	0x00001091
    120c:	00000e69 	.word	0x00000e69
    1210:	40000c04 	.word	0x40000c04
    1214:	40000c00 	.word	0x40000c00
    1218:	00000ecd 	.word	0x00000ecd
    121c:	40000c08 	.word	0x40000c08
    1220:	00000e9d 	.word	0x00000e9d
    1224:	00001571 	.word	0x00001571

00001228 <system_gclk_chan_enable>:
    1228:	b510      	push	{r4, lr}
    122a:	0004      	movs	r4, r0
    122c:	4b06      	ldr	r3, [pc, #24]	; (1248 <system_gclk_chan_enable+0x20>)
    122e:	4798      	blx	r3
    1230:	4b06      	ldr	r3, [pc, #24]	; (124c <system_gclk_chan_enable+0x24>)
    1232:	4a07      	ldr	r2, [pc, #28]	; (1250 <system_gclk_chan_enable+0x28>)
    1234:	701c      	strb	r4, [r3, #0]
    1236:	2380      	movs	r3, #128	; 0x80
    1238:	8851      	ldrh	r1, [r2, #2]
    123a:	01db      	lsls	r3, r3, #7
    123c:	430b      	orrs	r3, r1
    123e:	8053      	strh	r3, [r2, #2]
    1240:	4b04      	ldr	r3, [pc, #16]	; (1254 <system_gclk_chan_enable+0x2c>)
    1242:	4798      	blx	r3
    1244:	bd10      	pop	{r4, pc}
    1246:	46c0      	nop			; (mov r8, r8)
    1248:	00000e69 	.word	0x00000e69
    124c:	40000c02 	.word	0x40000c02
    1250:	40000c00 	.word	0x40000c00
    1254:	00000e9d 	.word	0x00000e9d

00001258 <system_gclk_chan_disable>:
    1258:	b510      	push	{r4, lr}
    125a:	0004      	movs	r4, r0
    125c:	4b0e      	ldr	r3, [pc, #56]	; (1298 <system_gclk_chan_disable+0x40>)
    125e:	4798      	blx	r3
    1260:	4b0e      	ldr	r3, [pc, #56]	; (129c <system_gclk_chan_disable+0x44>)
    1262:	4a0f      	ldr	r2, [pc, #60]	; (12a0 <system_gclk_chan_disable+0x48>)
    1264:	701c      	strb	r4, [r3, #0]
    1266:	4b0f      	ldr	r3, [pc, #60]	; (12a4 <system_gclk_chan_disable+0x4c>)
    1268:	4c0f      	ldr	r4, [pc, #60]	; (12a8 <system_gclk_chan_disable+0x50>)
    126a:	8858      	ldrh	r0, [r3, #2]
    126c:	8859      	ldrh	r1, [r3, #2]
    126e:	0500      	lsls	r0, r0, #20
    1270:	4011      	ands	r1, r2
    1272:	8059      	strh	r1, [r3, #2]
    1274:	8859      	ldrh	r1, [r3, #2]
    1276:	0f00      	lsrs	r0, r0, #28
    1278:	4021      	ands	r1, r4
    127a:	8059      	strh	r1, [r3, #2]
    127c:	0011      	movs	r1, r2
    127e:	2280      	movs	r2, #128	; 0x80
    1280:	01d2      	lsls	r2, r2, #7
    1282:	885c      	ldrh	r4, [r3, #2]
    1284:	4214      	tst	r4, r2
    1286:	d1fc      	bne.n	1282 <system_gclk_chan_disable+0x2a>
    1288:	885a      	ldrh	r2, [r3, #2]
    128a:	0200      	lsls	r0, r0, #8
    128c:	400a      	ands	r2, r1
    128e:	4302      	orrs	r2, r0
    1290:	805a      	strh	r2, [r3, #2]
    1292:	4b06      	ldr	r3, [pc, #24]	; (12ac <system_gclk_chan_disable+0x54>)
    1294:	4798      	blx	r3
    1296:	bd10      	pop	{r4, pc}
    1298:	00000e69 	.word	0x00000e69
    129c:	40000c02 	.word	0x40000c02
    12a0:	fffff0ff 	.word	0xfffff0ff
    12a4:	40000c00 	.word	0x40000c00
    12a8:	ffffbfff 	.word	0xffffbfff
    12ac:	00000e9d 	.word	0x00000e9d

000012b0 <system_gclk_chan_set_config>:
    12b0:	b510      	push	{r4, lr}
    12b2:	780c      	ldrb	r4, [r1, #0]
    12b4:	4b03      	ldr	r3, [pc, #12]	; (12c4 <system_gclk_chan_set_config+0x14>)
    12b6:	0224      	lsls	r4, r4, #8
    12b8:	4304      	orrs	r4, r0
    12ba:	4798      	blx	r3
    12bc:	4b02      	ldr	r3, [pc, #8]	; (12c8 <system_gclk_chan_set_config+0x18>)
    12be:	b2a4      	uxth	r4, r4
    12c0:	805c      	strh	r4, [r3, #2]
    12c2:	bd10      	pop	{r4, pc}
    12c4:	00001259 	.word	0x00001259
    12c8:	40000c00 	.word	0x40000c00

000012cc <system_gclk_chan_lock>:
    12cc:	b510      	push	{r4, lr}
    12ce:	0004      	movs	r4, r0
    12d0:	4b06      	ldr	r3, [pc, #24]	; (12ec <system_gclk_chan_lock+0x20>)
    12d2:	4798      	blx	r3
    12d4:	21c0      	movs	r1, #192	; 0xc0
    12d6:	4b06      	ldr	r3, [pc, #24]	; (12f0 <system_gclk_chan_lock+0x24>)
    12d8:	4a06      	ldr	r2, [pc, #24]	; (12f4 <system_gclk_chan_lock+0x28>)
    12da:	701c      	strb	r4, [r3, #0]
    12dc:	8853      	ldrh	r3, [r2, #2]
    12de:	0209      	lsls	r1, r1, #8
    12e0:	430b      	orrs	r3, r1
    12e2:	8053      	strh	r3, [r2, #2]
    12e4:	4b04      	ldr	r3, [pc, #16]	; (12f8 <system_gclk_chan_lock+0x2c>)
    12e6:	4798      	blx	r3
    12e8:	bd10      	pop	{r4, pc}
    12ea:	46c0      	nop			; (mov r8, r8)
    12ec:	00000e69 	.word	0x00000e69
    12f0:	40000c02 	.word	0x40000c02
    12f4:	40000c00 	.word	0x40000c00
    12f8:	00000e9d 	.word	0x00000e9d

000012fc <system_gclk_chan_get_hz>:
    12fc:	b510      	push	{r4, lr}
    12fe:	0004      	movs	r4, r0
    1300:	4b06      	ldr	r3, [pc, #24]	; (131c <system_gclk_chan_get_hz+0x20>)
    1302:	4798      	blx	r3
    1304:	4b06      	ldr	r3, [pc, #24]	; (1320 <system_gclk_chan_get_hz+0x24>)
    1306:	701c      	strb	r4, [r3, #0]
    1308:	4b06      	ldr	r3, [pc, #24]	; (1324 <system_gclk_chan_get_hz+0x28>)
    130a:	885c      	ldrh	r4, [r3, #2]
    130c:	4b06      	ldr	r3, [pc, #24]	; (1328 <system_gclk_chan_get_hz+0x2c>)
    130e:	0524      	lsls	r4, r4, #20
    1310:	0f24      	lsrs	r4, r4, #28
    1312:	4798      	blx	r3
    1314:	0020      	movs	r0, r4
    1316:	4b05      	ldr	r3, [pc, #20]	; (132c <system_gclk_chan_get_hz+0x30>)
    1318:	4798      	blx	r3
    131a:	bd10      	pop	{r4, pc}
    131c:	00000e69 	.word	0x00000e69
    1320:	40000c02 	.word	0x40000c02
    1324:	40000c00 	.word	0x40000c00
    1328:	00000e9d 	.word	0x00000e9d
    132c:	000011a1 	.word	0x000011a1

00001330 <_system_pinmux_config>:
    1330:	78d3      	ldrb	r3, [r2, #3]
    1332:	b530      	push	{r4, r5, lr}
    1334:	2b00      	cmp	r3, #0
    1336:	d135      	bne.n	13a4 <_system_pinmux_config+0x74>
    1338:	7814      	ldrb	r4, [r2, #0]
    133a:	2c80      	cmp	r4, #128	; 0x80
    133c:	d003      	beq.n	1346 <_system_pinmux_config+0x16>
    133e:	2380      	movs	r3, #128	; 0x80
    1340:	0624      	lsls	r4, r4, #24
    1342:	025b      	lsls	r3, r3, #9
    1344:	4323      	orrs	r3, r4
    1346:	2502      	movs	r5, #2
    1348:	7854      	ldrb	r4, [r2, #1]
    134a:	43ac      	bics	r4, r5
    134c:	d106      	bne.n	135c <_system_pinmux_config+0x2c>
    134e:	7894      	ldrb	r4, [r2, #2]
    1350:	2c00      	cmp	r4, #0
    1352:	d124      	bne.n	139e <_system_pinmux_config+0x6e>
    1354:	2480      	movs	r4, #128	; 0x80
    1356:	02a4      	lsls	r4, r4, #10
    1358:	4323      	orrs	r3, r4
    135a:	6041      	str	r1, [r0, #4]
    135c:	7854      	ldrb	r4, [r2, #1]
    135e:	3c01      	subs	r4, #1
    1360:	2c01      	cmp	r4, #1
    1362:	d801      	bhi.n	1368 <_system_pinmux_config+0x38>
    1364:	4c12      	ldr	r4, [pc, #72]	; (13b0 <_system_pinmux_config+0x80>)
    1366:	4023      	ands	r3, r4
    1368:	24a0      	movs	r4, #160	; 0xa0
    136a:	b28d      	uxth	r5, r1
    136c:	05e4      	lsls	r4, r4, #23
    136e:	432c      	orrs	r4, r5
    1370:	431c      	orrs	r4, r3
    1372:	6284      	str	r4, [r0, #40]	; 0x28
    1374:	24d0      	movs	r4, #208	; 0xd0
    1376:	0c0d      	lsrs	r5, r1, #16
    1378:	0624      	lsls	r4, r4, #24
    137a:	432c      	orrs	r4, r5
    137c:	431c      	orrs	r4, r3
    137e:	6284      	str	r4, [r0, #40]	; 0x28
    1380:	78d4      	ldrb	r4, [r2, #3]
    1382:	2c00      	cmp	r4, #0
    1384:	d10a      	bne.n	139c <_system_pinmux_config+0x6c>
    1386:	035b      	lsls	r3, r3, #13
    1388:	d503      	bpl.n	1392 <_system_pinmux_config+0x62>
    138a:	7893      	ldrb	r3, [r2, #2]
    138c:	2b01      	cmp	r3, #1
    138e:	d10c      	bne.n	13aa <_system_pinmux_config+0x7a>
    1390:	6181      	str	r1, [r0, #24]
    1392:	7853      	ldrb	r3, [r2, #1]
    1394:	3b01      	subs	r3, #1
    1396:	2b01      	cmp	r3, #1
    1398:	d800      	bhi.n	139c <_system_pinmux_config+0x6c>
    139a:	6081      	str	r1, [r0, #8]
    139c:	bd30      	pop	{r4, r5, pc}
    139e:	24c0      	movs	r4, #192	; 0xc0
    13a0:	02e4      	lsls	r4, r4, #11
    13a2:	e7d9      	b.n	1358 <_system_pinmux_config+0x28>
    13a4:	6041      	str	r1, [r0, #4]
    13a6:	2300      	movs	r3, #0
    13a8:	e7de      	b.n	1368 <_system_pinmux_config+0x38>
    13aa:	6141      	str	r1, [r0, #20]
    13ac:	e7f1      	b.n	1392 <_system_pinmux_config+0x62>
    13ae:	46c0      	nop			; (mov r8, r8)
    13b0:	fffbffff 	.word	0xfffbffff

000013b4 <system_pinmux_pin_set_config>:
    13b4:	b510      	push	{r4, lr}
    13b6:	0003      	movs	r3, r0
    13b8:	000a      	movs	r2, r1
    13ba:	0944      	lsrs	r4, r0, #5
    13bc:	09c1      	lsrs	r1, r0, #7
    13be:	2000      	movs	r0, #0
    13c0:	4281      	cmp	r1, r0
    13c2:	d102      	bne.n	13ca <system_pinmux_pin_set_config+0x16>
    13c4:	4904      	ldr	r1, [pc, #16]	; (13d8 <system_pinmux_pin_set_config+0x24>)
    13c6:	01e0      	lsls	r0, r4, #7
    13c8:	1840      	adds	r0, r0, r1
    13ca:	211f      	movs	r1, #31
    13cc:	400b      	ands	r3, r1
    13ce:	391e      	subs	r1, #30
    13d0:	4099      	lsls	r1, r3
    13d2:	4b02      	ldr	r3, [pc, #8]	; (13dc <system_pinmux_pin_set_config+0x28>)
    13d4:	4798      	blx	r3
    13d6:	bd10      	pop	{r4, pc}
    13d8:	41004400 	.word	0x41004400
    13dc:	00001331 	.word	0x00001331

000013e0 <_system_dummy_init>:
    13e0:	4770      	bx	lr
	...

000013e4 <system_init>:
    13e4:	b510      	push	{r4, lr}
    13e6:	4b05      	ldr	r3, [pc, #20]	; (13fc <system_init+0x18>)
    13e8:	4798      	blx	r3
    13ea:	4b05      	ldr	r3, [pc, #20]	; (1400 <system_init+0x1c>)
    13ec:	4798      	blx	r3
    13ee:	4b05      	ldr	r3, [pc, #20]	; (1404 <system_init+0x20>)
    13f0:	4798      	blx	r3
    13f2:	4b05      	ldr	r3, [pc, #20]	; (1408 <system_init+0x24>)
    13f4:	4798      	blx	r3
    13f6:	4b05      	ldr	r3, [pc, #20]	; (140c <system_init+0x28>)
    13f8:	4798      	blx	r3
    13fa:	bd10      	pop	{r4, pc}
    13fc:	00001001 	.word	0x00001001
    1400:	00000e65 	.word	0x00000e65
    1404:	00000341 	.word	0x00000341
    1408:	000013e1 	.word	0x000013e1
    140c:	000013e1 	.word	0x000013e1

00001410 <Dummy_Handler>:
    1410:	e7fe      	b.n	1410 <Dummy_Handler>
	...

00001414 <Reset_Handler>:
    1414:	4811      	ldr	r0, [pc, #68]	; (145c <Reset_Handler+0x48>)
    1416:	4912      	ldr	r1, [pc, #72]	; (1460 <Reset_Handler+0x4c>)
    1418:	b570      	push	{r4, r5, r6, lr}
    141a:	4288      	cmp	r0, r1
    141c:	d004      	beq.n	1428 <Reset_Handler+0x14>
    141e:	2300      	movs	r3, #0
    1420:	4c10      	ldr	r4, [pc, #64]	; (1464 <Reset_Handler+0x50>)
    1422:	18ca      	adds	r2, r1, r3
    1424:	42a2      	cmp	r2, r4
    1426:	d313      	bcc.n	1450 <Reset_Handler+0x3c>
    1428:	2100      	movs	r1, #0
    142a:	4b0f      	ldr	r3, [pc, #60]	; (1468 <Reset_Handler+0x54>)
    142c:	4a0f      	ldr	r2, [pc, #60]	; (146c <Reset_Handler+0x58>)
    142e:	4293      	cmp	r3, r2
    1430:	d312      	bcc.n	1458 <Reset_Handler+0x44>
    1432:	21ff      	movs	r1, #255	; 0xff
    1434:	4b0e      	ldr	r3, [pc, #56]	; (1470 <Reset_Handler+0x5c>)
    1436:	4a0f      	ldr	r2, [pc, #60]	; (1474 <Reset_Handler+0x60>)
    1438:	438b      	bics	r3, r1
    143a:	6093      	str	r3, [r2, #8]
    143c:	2380      	movs	r3, #128	; 0x80
    143e:	4a0e      	ldr	r2, [pc, #56]	; (1478 <Reset_Handler+0x64>)
    1440:	6851      	ldr	r1, [r2, #4]
    1442:	430b      	orrs	r3, r1
    1444:	6053      	str	r3, [r2, #4]
    1446:	4b0d      	ldr	r3, [pc, #52]	; (147c <Reset_Handler+0x68>)
    1448:	4798      	blx	r3
    144a:	4b0d      	ldr	r3, [pc, #52]	; (1480 <Reset_Handler+0x6c>)
    144c:	4798      	blx	r3
    144e:	e7fe      	b.n	144e <Reset_Handler+0x3a>
    1450:	58c5      	ldr	r5, [r0, r3]
    1452:	3304      	adds	r3, #4
    1454:	6015      	str	r5, [r2, #0]
    1456:	e7e4      	b.n	1422 <Reset_Handler+0xe>
    1458:	c302      	stmia	r3!, {r1}
    145a:	e7e8      	b.n	142e <Reset_Handler+0x1a>
    145c:	0000179c 	.word	0x0000179c
    1460:	20000000 	.word	0x20000000
    1464:	20000030 	.word	0x20000030
    1468:	20000030 	.word	0x20000030
    146c:	200003a0 	.word	0x200003a0
    1470:	00000000 	.word	0x00000000
    1474:	e000ed00 	.word	0xe000ed00
    1478:	41004000 	.word	0x41004000
    147c:	000016f5 	.word	0x000016f5
    1480:	0000149d 	.word	0x0000149d

00001484 <writeStr>:
    1484:	b510      	push	{r4, lr}
    1486:	0001      	movs	r1, r0
    1488:	2204      	movs	r2, #4
    148a:	4802      	ldr	r0, [pc, #8]	; (1494 <writeStr+0x10>)
    148c:	4b02      	ldr	r3, [pc, #8]	; (1498 <writeStr+0x14>)
    148e:	4798      	blx	r3
    1490:	bd10      	pop	{r4, pc}
    1492:	46c0      	nop			; (mov r8, r8)
    1494:	200000ac 	.word	0x200000ac
    1498:	000009dd 	.word	0x000009dd

0000149c <main>:
    149c:	b5f0      	push	{r4, r5, r6, r7, lr}
    149e:	4b1e      	ldr	r3, [pc, #120]	; (1518 <main+0x7c>)
    14a0:	b087      	sub	sp, #28
    14a2:	4798      	blx	r3
    14a4:	4b1d      	ldr	r3, [pc, #116]	; (151c <main+0x80>)
    14a6:	4798      	blx	r3
    14a8:	4b1d      	ldr	r3, [pc, #116]	; (1520 <main+0x84>)
    14aa:	4798      	blx	r3
    14ac:	4b1d      	ldr	r3, [pc, #116]	; (1524 <main+0x88>)
    14ae:	4798      	blx	r3
    14b0:	481d      	ldr	r0, [pc, #116]	; (1528 <main+0x8c>)
    14b2:	4b1e      	ldr	r3, [pc, #120]	; (152c <main+0x90>)
    14b4:	4798      	blx	r3
    14b6:	2212      	movs	r2, #18
    14b8:	491d      	ldr	r1, [pc, #116]	; (1530 <main+0x94>)
    14ba:	4b1e      	ldr	r3, [pc, #120]	; (1534 <main+0x98>)
    14bc:	a801      	add	r0, sp, #4
    14be:	4798      	blx	r3
    14c0:	4f1d      	ldr	r7, [pc, #116]	; (1538 <main+0x9c>)
    14c2:	2212      	movs	r2, #18
    14c4:	a901      	add	r1, sp, #4
    14c6:	4b1d      	ldr	r3, [pc, #116]	; (153c <main+0xa0>)
    14c8:	0038      	movs	r0, r7
    14ca:	4798      	blx	r3
    14cc:	4b1c      	ldr	r3, [pc, #112]	; (1540 <main+0xa4>)
    14ce:	4798      	blx	r3
    14d0:	2200      	movs	r2, #0
    14d2:	4b1c      	ldr	r3, [pc, #112]	; (1544 <main+0xa8>)
    14d4:	2580      	movs	r5, #128	; 0x80
    14d6:	601a      	str	r2, [r3, #0]
    14d8:	2380      	movs	r3, #128	; 0x80
    14da:	4c1b      	ldr	r4, [pc, #108]	; (1548 <main+0xac>)
    14dc:	031b      	lsls	r3, r3, #12
    14de:	02ed      	lsls	r5, r5, #11
    14e0:	61a3      	str	r3, [r4, #24]
    14e2:	6163      	str	r3, [r4, #20]
    14e4:	61a5      	str	r5, [r4, #24]
    14e6:	2296      	movs	r2, #150	; 0x96
    14e8:	4918      	ldr	r1, [pc, #96]	; (154c <main+0xb0>)
    14ea:	0092      	lsls	r2, r2, #2
    14ec:	4b18      	ldr	r3, [pc, #96]	; (1550 <main+0xb4>)
    14ee:	61a5      	str	r5, [r4, #24]
    14f0:	0038      	movs	r0, r7
    14f2:	4798      	blx	r3
    14f4:	20fa      	movs	r0, #250	; 0xfa
    14f6:	4e17      	ldr	r6, [pc, #92]	; (1554 <main+0xb8>)
    14f8:	0040      	lsls	r0, r0, #1
    14fa:	47b0      	blx	r6
    14fc:	2380      	movs	r3, #128	; 0x80
    14fe:	031b      	lsls	r3, r3, #12
    1500:	6165      	str	r5, [r4, #20]
    1502:	61a3      	str	r3, [r4, #24]
    1504:	4b14      	ldr	r3, [pc, #80]	; (1558 <main+0xbc>)
    1506:	4798      	blx	r3
    1508:	20fa      	movs	r0, #250	; 0xfa
    150a:	0040      	lsls	r0, r0, #1
    150c:	47b0      	blx	r6
    150e:	2380      	movs	r3, #128	; 0x80
    1510:	031b      	lsls	r3, r3, #12
    1512:	6163      	str	r3, [r4, #20]
    1514:	e7e7      	b.n	14e6 <main+0x4a>
    1516:	46c0      	nop			; (mov r8, r8)
    1518:	000013e5 	.word	0x000013e5
    151c:	00000d69 	.word	0x00000d69
    1520:	00000661 	.word	0x00000661
    1524:	00000701 	.word	0x00000701
    1528:	2000001d 	.word	0x2000001d
    152c:	00001485 	.word	0x00001485
    1530:	00001768 	.word	0x00001768
    1534:	0000173d 	.word	0x0000173d
    1538:	200000ac 	.word	0x200000ac
    153c:	000009dd 	.word	0x000009dd
    1540:	00000cc9 	.word	0x00000cc9
    1544:	2000039c 	.word	0x2000039c
    1548:	41004400 	.word	0x41004400
    154c:	200000a8 	.word	0x200000a8
    1550:	00000abd 	.word	0x00000abd
    1554:	00000e19 	.word	0x00000e19
    1558:	00000735 	.word	0x00000735

0000155c <__gnu_thumb1_case_uqi>:
    155c:	b402      	push	{r1}
    155e:	4671      	mov	r1, lr
    1560:	0849      	lsrs	r1, r1, #1
    1562:	0049      	lsls	r1, r1, #1
    1564:	5c09      	ldrb	r1, [r1, r0]
    1566:	0049      	lsls	r1, r1, #1
    1568:	448e      	add	lr, r1
    156a:	bc02      	pop	{r1}
    156c:	4770      	bx	lr
    156e:	46c0      	nop			; (mov r8, r8)

00001570 <__udivsi3>:
    1570:	2200      	movs	r2, #0
    1572:	0843      	lsrs	r3, r0, #1
    1574:	428b      	cmp	r3, r1
    1576:	d374      	bcc.n	1662 <__udivsi3+0xf2>
    1578:	0903      	lsrs	r3, r0, #4
    157a:	428b      	cmp	r3, r1
    157c:	d35f      	bcc.n	163e <__udivsi3+0xce>
    157e:	0a03      	lsrs	r3, r0, #8
    1580:	428b      	cmp	r3, r1
    1582:	d344      	bcc.n	160e <__udivsi3+0x9e>
    1584:	0b03      	lsrs	r3, r0, #12
    1586:	428b      	cmp	r3, r1
    1588:	d328      	bcc.n	15dc <__udivsi3+0x6c>
    158a:	0c03      	lsrs	r3, r0, #16
    158c:	428b      	cmp	r3, r1
    158e:	d30d      	bcc.n	15ac <__udivsi3+0x3c>
    1590:	22ff      	movs	r2, #255	; 0xff
    1592:	0209      	lsls	r1, r1, #8
    1594:	ba12      	rev	r2, r2
    1596:	0c03      	lsrs	r3, r0, #16
    1598:	428b      	cmp	r3, r1
    159a:	d302      	bcc.n	15a2 <__udivsi3+0x32>
    159c:	1212      	asrs	r2, r2, #8
    159e:	0209      	lsls	r1, r1, #8
    15a0:	d065      	beq.n	166e <__udivsi3+0xfe>
    15a2:	0b03      	lsrs	r3, r0, #12
    15a4:	428b      	cmp	r3, r1
    15a6:	d319      	bcc.n	15dc <__udivsi3+0x6c>
    15a8:	e000      	b.n	15ac <__udivsi3+0x3c>
    15aa:	0a09      	lsrs	r1, r1, #8
    15ac:	0bc3      	lsrs	r3, r0, #15
    15ae:	428b      	cmp	r3, r1
    15b0:	d301      	bcc.n	15b6 <__udivsi3+0x46>
    15b2:	03cb      	lsls	r3, r1, #15
    15b4:	1ac0      	subs	r0, r0, r3
    15b6:	4152      	adcs	r2, r2
    15b8:	0b83      	lsrs	r3, r0, #14
    15ba:	428b      	cmp	r3, r1
    15bc:	d301      	bcc.n	15c2 <__udivsi3+0x52>
    15be:	038b      	lsls	r3, r1, #14
    15c0:	1ac0      	subs	r0, r0, r3
    15c2:	4152      	adcs	r2, r2
    15c4:	0b43      	lsrs	r3, r0, #13
    15c6:	428b      	cmp	r3, r1
    15c8:	d301      	bcc.n	15ce <__udivsi3+0x5e>
    15ca:	034b      	lsls	r3, r1, #13
    15cc:	1ac0      	subs	r0, r0, r3
    15ce:	4152      	adcs	r2, r2
    15d0:	0b03      	lsrs	r3, r0, #12
    15d2:	428b      	cmp	r3, r1
    15d4:	d301      	bcc.n	15da <__udivsi3+0x6a>
    15d6:	030b      	lsls	r3, r1, #12
    15d8:	1ac0      	subs	r0, r0, r3
    15da:	4152      	adcs	r2, r2
    15dc:	0ac3      	lsrs	r3, r0, #11
    15de:	428b      	cmp	r3, r1
    15e0:	d301      	bcc.n	15e6 <__udivsi3+0x76>
    15e2:	02cb      	lsls	r3, r1, #11
    15e4:	1ac0      	subs	r0, r0, r3
    15e6:	4152      	adcs	r2, r2
    15e8:	0a83      	lsrs	r3, r0, #10
    15ea:	428b      	cmp	r3, r1
    15ec:	d301      	bcc.n	15f2 <__udivsi3+0x82>
    15ee:	028b      	lsls	r3, r1, #10
    15f0:	1ac0      	subs	r0, r0, r3
    15f2:	4152      	adcs	r2, r2
    15f4:	0a43      	lsrs	r3, r0, #9
    15f6:	428b      	cmp	r3, r1
    15f8:	d301      	bcc.n	15fe <__udivsi3+0x8e>
    15fa:	024b      	lsls	r3, r1, #9
    15fc:	1ac0      	subs	r0, r0, r3
    15fe:	4152      	adcs	r2, r2
    1600:	0a03      	lsrs	r3, r0, #8
    1602:	428b      	cmp	r3, r1
    1604:	d301      	bcc.n	160a <__udivsi3+0x9a>
    1606:	020b      	lsls	r3, r1, #8
    1608:	1ac0      	subs	r0, r0, r3
    160a:	4152      	adcs	r2, r2
    160c:	d2cd      	bcs.n	15aa <__udivsi3+0x3a>
    160e:	09c3      	lsrs	r3, r0, #7
    1610:	428b      	cmp	r3, r1
    1612:	d301      	bcc.n	1618 <__udivsi3+0xa8>
    1614:	01cb      	lsls	r3, r1, #7
    1616:	1ac0      	subs	r0, r0, r3
    1618:	4152      	adcs	r2, r2
    161a:	0983      	lsrs	r3, r0, #6
    161c:	428b      	cmp	r3, r1
    161e:	d301      	bcc.n	1624 <__udivsi3+0xb4>
    1620:	018b      	lsls	r3, r1, #6
    1622:	1ac0      	subs	r0, r0, r3
    1624:	4152      	adcs	r2, r2
    1626:	0943      	lsrs	r3, r0, #5
    1628:	428b      	cmp	r3, r1
    162a:	d301      	bcc.n	1630 <__udivsi3+0xc0>
    162c:	014b      	lsls	r3, r1, #5
    162e:	1ac0      	subs	r0, r0, r3
    1630:	4152      	adcs	r2, r2
    1632:	0903      	lsrs	r3, r0, #4
    1634:	428b      	cmp	r3, r1
    1636:	d301      	bcc.n	163c <__udivsi3+0xcc>
    1638:	010b      	lsls	r3, r1, #4
    163a:	1ac0      	subs	r0, r0, r3
    163c:	4152      	adcs	r2, r2
    163e:	08c3      	lsrs	r3, r0, #3
    1640:	428b      	cmp	r3, r1
    1642:	d301      	bcc.n	1648 <__udivsi3+0xd8>
    1644:	00cb      	lsls	r3, r1, #3
    1646:	1ac0      	subs	r0, r0, r3
    1648:	4152      	adcs	r2, r2
    164a:	0883      	lsrs	r3, r0, #2
    164c:	428b      	cmp	r3, r1
    164e:	d301      	bcc.n	1654 <__udivsi3+0xe4>
    1650:	008b      	lsls	r3, r1, #2
    1652:	1ac0      	subs	r0, r0, r3
    1654:	4152      	adcs	r2, r2
    1656:	0843      	lsrs	r3, r0, #1
    1658:	428b      	cmp	r3, r1
    165a:	d301      	bcc.n	1660 <__udivsi3+0xf0>
    165c:	004b      	lsls	r3, r1, #1
    165e:	1ac0      	subs	r0, r0, r3
    1660:	4152      	adcs	r2, r2
    1662:	1a41      	subs	r1, r0, r1
    1664:	d200      	bcs.n	1668 <__udivsi3+0xf8>
    1666:	4601      	mov	r1, r0
    1668:	4152      	adcs	r2, r2
    166a:	4610      	mov	r0, r2
    166c:	4770      	bx	lr
    166e:	e7ff      	b.n	1670 <__udivsi3+0x100>
    1670:	b501      	push	{r0, lr}
    1672:	2000      	movs	r0, #0
    1674:	f000 f806 	bl	1684 <__aeabi_idiv0>
    1678:	bd02      	pop	{r1, pc}
    167a:	46c0      	nop			; (mov r8, r8)

0000167c <__aeabi_uidivmod>:
    167c:	2900      	cmp	r1, #0
    167e:	d0f7      	beq.n	1670 <__udivsi3+0x100>
    1680:	e776      	b.n	1570 <__udivsi3>
    1682:	4770      	bx	lr

00001684 <__aeabi_idiv0>:
    1684:	4770      	bx	lr
    1686:	46c0      	nop			; (mov r8, r8)

00001688 <__aeabi_llsl>:
    1688:	4091      	lsls	r1, r2
    168a:	1c03      	adds	r3, r0, #0
    168c:	4090      	lsls	r0, r2
    168e:	469c      	mov	ip, r3
    1690:	3a20      	subs	r2, #32
    1692:	4093      	lsls	r3, r2
    1694:	4319      	orrs	r1, r3
    1696:	4252      	negs	r2, r2
    1698:	4663      	mov	r3, ip
    169a:	40d3      	lsrs	r3, r2
    169c:	4319      	orrs	r1, r3
    169e:	4770      	bx	lr

000016a0 <__aeabi_lmul>:
    16a0:	b5f0      	push	{r4, r5, r6, r7, lr}
    16a2:	46ce      	mov	lr, r9
    16a4:	4647      	mov	r7, r8
    16a6:	0415      	lsls	r5, r2, #16
    16a8:	0c2d      	lsrs	r5, r5, #16
    16aa:	002e      	movs	r6, r5
    16ac:	b580      	push	{r7, lr}
    16ae:	0407      	lsls	r7, r0, #16
    16b0:	0c14      	lsrs	r4, r2, #16
    16b2:	0c3f      	lsrs	r7, r7, #16
    16b4:	4699      	mov	r9, r3
    16b6:	0c03      	lsrs	r3, r0, #16
    16b8:	437e      	muls	r6, r7
    16ba:	435d      	muls	r5, r3
    16bc:	4367      	muls	r7, r4
    16be:	4363      	muls	r3, r4
    16c0:	197f      	adds	r7, r7, r5
    16c2:	0c34      	lsrs	r4, r6, #16
    16c4:	19e4      	adds	r4, r4, r7
    16c6:	469c      	mov	ip, r3
    16c8:	42a5      	cmp	r5, r4
    16ca:	d903      	bls.n	16d4 <__aeabi_lmul+0x34>
    16cc:	2380      	movs	r3, #128	; 0x80
    16ce:	025b      	lsls	r3, r3, #9
    16d0:	4698      	mov	r8, r3
    16d2:	44c4      	add	ip, r8
    16d4:	464b      	mov	r3, r9
    16d6:	4351      	muls	r1, r2
    16d8:	4343      	muls	r3, r0
    16da:	0436      	lsls	r6, r6, #16
    16dc:	0c36      	lsrs	r6, r6, #16
    16de:	0c25      	lsrs	r5, r4, #16
    16e0:	0424      	lsls	r4, r4, #16
    16e2:	4465      	add	r5, ip
    16e4:	19a4      	adds	r4, r4, r6
    16e6:	1859      	adds	r1, r3, r1
    16e8:	1949      	adds	r1, r1, r5
    16ea:	0020      	movs	r0, r4
    16ec:	bc0c      	pop	{r2, r3}
    16ee:	4690      	mov	r8, r2
    16f0:	4699      	mov	r9, r3
    16f2:	bdf0      	pop	{r4, r5, r6, r7, pc}

000016f4 <__libc_init_array>:
    16f4:	b570      	push	{r4, r5, r6, lr}
    16f6:	2600      	movs	r6, #0
    16f8:	4d0c      	ldr	r5, [pc, #48]	; (172c <__libc_init_array+0x38>)
    16fa:	4c0d      	ldr	r4, [pc, #52]	; (1730 <__libc_init_array+0x3c>)
    16fc:	1b64      	subs	r4, r4, r5
    16fe:	10a4      	asrs	r4, r4, #2
    1700:	42a6      	cmp	r6, r4
    1702:	d109      	bne.n	1718 <__libc_init_array+0x24>
    1704:	2600      	movs	r6, #0
    1706:	f000 f839 	bl	177c <_init>
    170a:	4d0a      	ldr	r5, [pc, #40]	; (1734 <__libc_init_array+0x40>)
    170c:	4c0a      	ldr	r4, [pc, #40]	; (1738 <__libc_init_array+0x44>)
    170e:	1b64      	subs	r4, r4, r5
    1710:	10a4      	asrs	r4, r4, #2
    1712:	42a6      	cmp	r6, r4
    1714:	d105      	bne.n	1722 <__libc_init_array+0x2e>
    1716:	bd70      	pop	{r4, r5, r6, pc}
    1718:	00b3      	lsls	r3, r6, #2
    171a:	58eb      	ldr	r3, [r5, r3]
    171c:	4798      	blx	r3
    171e:	3601      	adds	r6, #1
    1720:	e7ee      	b.n	1700 <__libc_init_array+0xc>
    1722:	00b3      	lsls	r3, r6, #2
    1724:	58eb      	ldr	r3, [r5, r3]
    1726:	4798      	blx	r3
    1728:	3601      	adds	r6, #1
    172a:	e7f2      	b.n	1712 <__libc_init_array+0x1e>
    172c:	00001788 	.word	0x00001788
    1730:	00001788 	.word	0x00001788
    1734:	00001788 	.word	0x00001788
    1738:	0000178c 	.word	0x0000178c

0000173c <memcpy>:
    173c:	2300      	movs	r3, #0
    173e:	b510      	push	{r4, lr}
    1740:	429a      	cmp	r2, r3
    1742:	d100      	bne.n	1746 <memcpy+0xa>
    1744:	bd10      	pop	{r4, pc}
    1746:	5ccc      	ldrb	r4, [r1, r3]
    1748:	54c4      	strb	r4, [r0, r3]
    174a:	3301      	adds	r3, #1
    174c:	e7f8      	b.n	1740 <memcpy+0x4>
    174e:	0000      	movs	r0, r0
    1750:	42000800 	.word	0x42000800
    1754:	42000c00 	.word	0x42000c00
    1758:	42001000 	.word	0x42001000
    175c:	42001400 	.word	0x42001400
    1760:	42001800 	.word	0x42001800
    1764:	42001c00 	.word	0x42001c00
    1768:	74696e49 	.word	0x74696e49
    176c:	696c6169 	.word	0x696c6169
    1770:	676e697a 	.word	0x676e697a
    1774:	0d2e2e2e 	.word	0x0d2e2e2e
    1778:	0000000a 	.word	0x0000000a

0000177c <_init>:
    177c:	b5f8      	push	{r3, r4, r5, r6, r7, lr}
    177e:	46c0      	nop			; (mov r8, r8)
    1780:	bcf8      	pop	{r3, r4, r5, r6, r7}
    1782:	bc08      	pop	{r3}
    1784:	469e      	mov	lr, r3
    1786:	4770      	bx	lr

00001788 <__init_array_start>:
    1788:	000000cd 	.word	0x000000cd

0000178c <_fini>:
    178c:	b5f8      	push	{r3, r4, r5, r6, r7, lr}
    178e:	46c0      	nop			; (mov r8, r8)
    1790:	bcf8      	pop	{r3, r4, r5, r6, r7}
    1792:	bc08      	pop	{r3}
    1794:	469e      	mov	lr, r3
    1796:	4770      	bx	lr

00001798 <__fini_array_start>:
    1798:	000000a5 	.word	0x000000a5
